(dp1
S'output'
p2
S"<class 'sqlite3.OperationalError'> table Electroliticos already exists"
p3
sS'layer'
p4
S'/home/ismael/Escritorio/web2py/applications/Repuestos/models/db.py'
p5
sS'code'
p6
S'# -*- coding: utf-8 -*-\n\n#########################################################################\n## This scaffolding model makes your app work on Google App Engine too\n## File is released under public domain and you can use without limitations\n#########################################################################\n\n## if SSL/HTTPS is properly configured and you want all HTTP requests to\n## be redirected to HTTPS, uncomment the line below:\n# request.requires_https()\nimport datetime\n\nif not request.env.web2py_runtime_gae:\n    ## if NOT running on Google App Engine use SQLite or other DB\n    db = DAL(\'sqlite://storage.sqlite\',pool_size=1,check_reserved=[\'all\'])\nelse:\n    ## connect to Google BigTable (optional \'google:datastore://namespace\')\n    db = DAL(\'google:datastore+ndb\')\n    ## store sessions and tickets there\n    session.connect(request, response, db=db)\n    ## or store session in Memcache, Redis, etc.\n    ## from gluon.contrib.memdb import MEMDB\n    ## from google.appengine.api.memcache import Client\n    ## session.connect(request, response, db = MEMDB(Client()))\n\n## by default give a view/generic.extension to all actions from localhost\n## none otherwise. a pattern can be \'controller/function.extension\'\nresponse.generic_patterns = [\'*\'] if request.is_local else []\n\n## (optional) optimize handling of static files\n# response.optimize_css = \'concat,minify,inline\'\n# response.optimize_js = \'concat,minify,inline\'\n## (optional) static assets folder versioning\n# response.static_version = \'0.0.0\'\n#########################################################################\n## Here is sample code if you need for\n## - email capabilities\n## - authentication (registration, login, logout, ... )\n## - authorization (role based authorization)\n## - services (xml, csv, json, xmlrpc, jsonrpc, amf, rss)\n## - old style crud actions\n## (more options discussed in gluon/tools.py)\n#########################################################################\n\nfrom gluon.tools import Auth, Service, PluginManager\n\nauth = Auth(db)\nservice = Service()\nplugins = PluginManager()\n\n## create all tables needed by auth if not custom tables\nauth.define_tables(username=False, signature=False)\n\n## configure email\nmail = auth.settings.mailer\nmail.settings.server = \'logging\' if request.is_local else \'smtp.gmail.com:587\'\nmail.settings.sender = \'you@gmail.com\'\nmail.settings.login = \'username:password\'\n\n## configure auth policy\nauth.settings.registration_requires_verification = False\nauth.settings.registration_requires_approval = False\nauth.settings.reset_password_requires_verification = True\n\n## if you need to use OpenID, Facebook, MySpace, Twitter, Linkedin, etc.\n## register with janrain.com, write your domain:api_key in private/janrain.key\nfrom gluon.contrib.login_methods.janrain_account import use_janrain\nuse_janrain(auth, filename=\'private/janrain.key\')\n\n#########################################################################\n## Define your tables below (or better in another model file) for example\n##\n## >>> db.define_table(\'mytable\',Field(\'myfield\',\'string\'))\n##\n## Fields can be \'string\',\'text\',\'password\',\'integer\',\'double\',\'boolean\'\n##       \'date\',\'time\',\'datetime\',\'blob\',\'upload\', \'reference TABLENAME\'\n## There is an implicit \'id integer autoincrement\' field\n## Consult manual for more options, validators, etc.\n##\n## More API examples for controllers:\n##\n## >>> db.mytable.insert(myfield=\'value\')\n## >>> rows=db(db.mytable.myfield==\'value\').select(db.mytable.ALL)\n## >>> for row in rows: print row.id, row.myfield\n#########################################################################\n\n## after defining tables, uncomment below to enable auditing\n# auth.enable_record_versioning(db)\n\n## UNIDADES DE CAPACIDADES DE LOS CONDENSADORES ##\ndb.define_table(\'Capacidades\',\n\t\tField(\'medida_capacidad\',\'string\',label="Unidad"),\n\t\tformat=\'%(medida_capacidad)s\'\n\t\t)\n\n## COLORES DE LAS BANDAS DE LAS RESISTENCIAS ##\ndb.define_table(\'Colores_Resistencia\',\n\t\tField(\'Color_Banda\',\'string\',label="Color"),\n\t\tField(\'Valor\',\'integer\',label="Valor"),\n\t\tformat=\'%(Valor)s - %(Color_Banda)s\'\n\t\t)\n\ndb.define_table(\'Medidas_Resistencia\',\n\t\tField(\'unidad\',\'string\',label="Unidad"),\n\t\tformat=\'%(unidad)s\'\n\t\t)\n\t\t\ndb.define_table(\'Tolerancia\',\n\t\tField(\'Valor_Tol\',\'string\',label="Unidad"),\n\t\tformat=\'%(Valor_Tol)s\'\n\t\t)\n\t\t\ndb.define_table(\'Potencia_Disipada\',\n\t\tField(\'Valor_Potencia\',\'string\',label="Unidad"),\n\t\tformat=\'%(Valor_Potencia)s\'\n\t\t)\n\t\t\ndb.define_table(\'N_Patillas\',\n\t\tField(\'Numero_Patillas\',\'integer\',label="Unidad"),\n\t\tformat=\'%(Numero_Patillas)s\'\n\t\t)\n\t\t\ndb.define_table(\'Medida_Frecuencia\',\n\t\tField(\'Medida\',\'string\',label="Unidad"),\n\t\tformat=\'%(Medida)s\'\n\t\t)\n\t\t\ndb.define_table(\'Medida_Inductancia\',\n\t\tField(\'Medida\',\'string\',label="Unidad"),\n\t\tformat=\'%(Medida)s\'\n\t\t)\n\t\t\n\ndb.define_table(\'Ceramicos\',\n        Field(\'descripcion\',\'string\',label="Descripci\xc3\xb3n",notnull=True),\n        Field(\'capacidad\',\'string\',label="Capacidad",notnull=True),\n        Field(\'medida\', db.Capacidades,notnull=True),\n        Field(\'tension\',\'integer\',label="Tensi\xc3\xb3n Maxima (V)"),\n        Field(\'cantidad\',\'integer\',label="Cantidad",notnull=True),        \n        )\ndb.Ceramicos.id.readable=False\n\ndb.define_table(\'Plastico\',\n        Field(\'descripcion\',\'string\',label="Descripci\xc3\xb3n",notnull=True),\n        Field(\'capacidad\',\'string\',label="Capacidad",notnull=True),\n        Field(\'medida\', db.Capacidades,notnull=True),\n        Field(\'tension\',\'integer\',label="Tensi\xc3\xb3n Maxima (V)"),\n        Field(\'cantidad\',\'integer\',label="Cantidad",notnull=True),        \n        )\ndb.Plastico.id.readable=False\n\ndb.define_table(\'Lenteja\',\n        Field(\'descripcion\',\'string\',label="Descripci\xc3\xb3n",notnull=True),\n        Field(\'capacidad\',\'string\',label="Capacidad",notnull=True),\n        Field(\'medida\', db.Capacidades,notnull=True),\n        Field(\'tension\',\'integer\',label="Tensi\xc3\xb3n Maxima (V)"),\n        Field(\'cantidad\',\'integer\',label="Cantidad",notnull=True),        \n        )\ndb.Lenteja.id.readable=False\n\ndb.define_table(\'Electroliticos\',\n        Field(\'descripcion\',\'string\',label="Capacidad"),\n        Field(\'capacidad\',\'string\',label="Capacidad",notnull=True),\n        Field(\'medida\', db.Capacidades,notnull=True),\n        Field(\'tension\',\'integer\',label="Tensi\xc3\xb3n Maxima (V)"),\n        Field(\'cantidad\',\'integer\',label="Cantidad",notnull=True),        \n        )\ndb.Electroliticos.id.readable=False\n\ndb.define_table(\'Resistencia\',\n\t\tField(\'valor\',\'string\',label="Valor",notnull=True),\n\t\tField(\'medida_resistencia\',db.Medidas_Resistencia,notnull=True),\n        Field(\'banda_1\',db.Colores_Resistencia,notnull=True),\n        Field(\'banda_2\',db.Colores_Resistencia,notnull=True),\n        Field(\'banda_3\',db.Colores_Resistencia,notnull=True),\n        Field(\'tolerancia\',db.Tolerancia,notnull=True),\n        Field(\'Potencia\',db.Potencia_Disipada,notnull=True),\n        Field(\'cantidad\',\'integer\',label="Cantidad",notnull=True),        \n        )\ndb.Resistencia.id.readable=False\n\ndb.define_table(\'Potenciometro\',\n\t\tField(\'descripcion\',\'string\',label="Descripci\xc3\xb3n",notnull=True),\n\t\tField(\'valor\',\'string\',label="Valor",notnull=True),\n\t\tField(\'medida_resistencia\',db.Medidas_Resistencia,notnull=True),\n        Field(\'cantidad\',\'integer\',label="Cantidad",notnull=True),        \n        )\ndb.Potenciometro.id.readable=False\n\ndb.define_table(\'Trimmer\',\n\t\tField(\'descripcion\',\'string\',label="Descripci\xc3\xb3n",notnull=True),\n\t\tField(\'valor\',\'string\',label="Valor",notnull=True),\n\t\tField(\'medida_resistencia\',db.Medidas_Resistencia,notnull=True),\n        Field(\'cantidad\',\'integer\',label="Cantidad",notnull=True),        \n        )\ndb.Trimmer.id.readable=False\n\ndb.define_table(\'Transistor\',\n\t\tField(\'descripcion\',\'string\',label="Descripci\xc3\xb3n",notnull=True),\n        Field(\'datasheet\',\'upload\',label="Datasheet",notnull=True),\n        Field(\'cantidad\',\'integer\',label="Cantidad",notnull=True),         \n        )\ndb.Transistor.id.readable=False\n\ndb.define_table(\'C_Integrado\',\n\t\tField(\'descripcion\',\'string\',label="Descripci\xc3\xb3n",notnull=True),\n\t\tField(\'numero_patillas\',db.N_Patillas,notnull=True),\n        Field(\'datasheet\',\'upload\',label="Datasheet",notnull=True),\n        Field(\'cantidad\',\'integer\',label="Cantidad",notnull=True),         \n        )\ndb.C_Integrado.id.readable=False\n\ndb.define_table(\'Cristal\',\n\t\tField(\'descripcion\',\'string\',label="Descripci\xc3\xb3n",notnull=True),\n        Field(\'frecuencia\',\'string\',label="Frecuencia",notnull=True),\n        Field(\'unidad_frecuencia\',db.Medida_Frecuencia,notnull=True),\n        Field(\'cantidad\',\'integer\',label="Cantidad",notnull=True),         \n        )\ndb.Cristal.id.readable=False\n\ndb.define_table(\'Rectificador\',\n\t\tField(\'descripcion\',\'string\',label="Descripci\xc3\xb3n",notnull=True),\n        Field(\'datasheet\',\'upload\',label="Datasheet",notnull=True),\n        Field(\'cantidad\',\'integer\',label="Cantidad",notnull=True),         \n        )\ndb.Rectificador.id.readable=False\n\ndb.define_table(\'Zener\',\n\t\tField(\'descripcion\',\'string\',label="Descripci\xc3\xb3n",notnull=True),\n        Field(\'datasheet\',\'upload\',label="Datasheet",notnull=True),\n        Field(\'cantidad\',\'integer\',label="Cantidad",notnull=True),         \n        )\ndb.Zener.id.readable=False\n\ndb.define_table(\'Bobinas\',\n\t\tField(\'descripcion\',\'string\',label="Descripci\xc3\xb3n"),\n        Field(\'inductancia\',\'integer\',label="Inductancia"),\n        Field(\'unidad_inductancia\',db.Medida_Inductancia),\n        Field(\'cantidad\',\'integer\',label="Cantidad"),         \n        )\ndb.Bobinas.id.readable=False\n\ndb.define_table(\'Triac\',\n\t\tField(\'descripcion\',\'string\',label="Descripci\xc3\xb3n",notnull=True),\n        Field(\'datasheet\',\'upload\',label="Datasheet",notnull=True),\n        Field(\'cantidad\',\'integer\',label="Cantidad",notnull=True),         \n        )\ndb.Triac.id.readable=False\n\ndb.define_table(\'Diac\',\n\t\tField(\'descripcion\',\'string\',label="Descripci\xc3\xb3n",notnull=True),\n        Field(\'datasheet\',\'upload\',label="Datasheet",notnull=True),\n        Field(\'cantidad\',\'integer\',label="Cantidad",notnull=True),         \n        )\ndb.Diac.id.readable=False\n\n'
p7
sS'snapshot'
p8
(dp9
S'exception'
p10
(dp11
S'__module__'
p12
S"'sqlite3'"
p13
sS'__getslice__'
p14
S"<method-wrapper '__getslice__' of OperationalError object>"
p15
sS'__str__'
p16
S"<method-wrapper '__str__' of OperationalError object>"
p17
sS'__reduce__'
p18
S'<built-in method __reduce__ of OperationalError object>'
p19
sS'__dict__'
p20
S'{}'
p21
sS'__sizeof__'
p22
S'<built-in method __sizeof__ of OperationalError object>'
p23
sS'__weakref__'
p24
S'None'
p25
sS'__init__'
p26
S"<method-wrapper '__init__' of OperationalError object>"
p27
sS'__setattr__'
p28
S"<method-wrapper '__setattr__' of OperationalError object>"
p29
sS'__reduce_ex__'
p30
S'<built-in method __reduce_ex__ of OperationalError object>'
p31
sS'__new__'
p32
S'<built-in method __new__ of type object>'
p33
sS'__format__'
p34
S'<built-in method __format__ of OperationalError object>'
p35
sS'__class__'
p36
S"<class 'sqlite3.OperationalError'>"
p37
sS'__doc__'
p38
S'None'
p39
sS'__getitem__'
p40
S"<method-wrapper '__getitem__' of OperationalError object>"
p41
sS'__setstate__'
p42
S'<built-in method __setstate__ of OperationalError object>'
p43
sS'__getattribute__'
p44
S"<method-wrapper '__getattribute__' of OperationalError object>"
p45
sS'args'
p46
S"('table Electroliticos already exists',)"
p47
sS'__subclasshook__'
p48
S'<built-in method __subclasshook__ of type object>'
p49
sS'__unicode__'
p50
S'<built-in method __unicode__ of OperationalError object>'
p51
sS'__delattr__'
p52
S"<method-wrapper '__delattr__' of OperationalError object>"
p53
sS'__repr__'
p54
S"<method-wrapper '__repr__' of OperationalError object>"
p55
sS'__hash__'
p56
S"<method-wrapper '__hash__' of OperationalError object>"
p57
ssS'evalue'
p58
S'table Electroliticos already exists'
p59
sS'request'
p60
cgluon.html
XML_unpickle
p61
(S's\x0eZ\x00\x00<div><table><tr><td style="font-weight:bold;vertical-align:top;">ajax</td><td style="vertical-align:top;">:</td><td><div>False</div></td></tr><tr><td style="font-weight:bold;vertical-align:top;">application</td><td style="vertical-align:top;">:</td><td><div>Repuestos</div></td></tr><tr><td style="font-weight:bold;vertical-align:top;">args</td><td style="vertical-align:top;">:</td><td><div><table></table></div></td></tr><tr><td style="font-weight:bold;vertical-align:top;">cid</td><td style="vertical-align:top;">:</td><td><div>None</div></td></tr><tr><td style="font-weight:bold;vertical-align:top;">client</td><td style="vertical-align:top;">:</td><td><div>127.0.0.1</div></td></tr><tr><td style="font-weight:bold;vertical-align:top;">controller</td><td style="vertical-align:top;">:</td><td><div>Condensadores</div></td></tr><tr><td style="font-weight:bold;vertical-align:top;">cookies</td><td style="vertical-align:top;">:</td><td><div><table><tr><td style="font-weight:bold;vertical-align:top;">session_id_admin</td><td style="vertical-align:top;">:</td><td><div>127.0.0.1-591c72fb-dbb8-4d8f-9d08-d91fca6ab26f<table><tr><td style="font-weight:bold;vertical-align:top;">comment</td><td style="vertical-align:top;">:</td><td><div></div></td></tr><tr><td style="font-weight:bold;vertical-align:top;">domain</td><td style="vertical-align:top;">:</td><td><div></div></td></tr><tr><td style="font-weight:bold;vertical-align:top;">expires</td><td style="vertical-align:top;">:</td><td><div></div></td></tr><tr><td style="font-weight:bold;vertical-align:top;">httponly</td><td style="vertical-align:top;">:</td><td><div></div></td></tr><tr><td style="font-weight:bold;vertical-align:top;">max-age</td><td style="vertical-align:top;">:</td><td><div></div></td></tr><tr><td style="font-weight:bold;vertical-align:top;">path</td><td style="vertical-align:top;">:</td><td><div></div></td></tr><tr><td style="font-weight:bold;vertical-align:top;">secure</td><td style="vertical-align:top;">:</td><td><div></div></td></tr><tr><td style="font-weight:bold;vertical-align:top;">version</td><td style="vertical-align:top;">:</td><td><div></div></td></tr></table></div></td></tr><tr><td style="font-weight:bold;vertical-align:top;">session_id_repuestos</td><td style="vertical-align:top;">:</td><td><div>127.0.0.1-ccd34025-352d-4af0-aaa2-0c5163ec29cf<table><tr><td style="font-weight:bold;vertical-align:top;">comment</td><td style="vertical-align:top;">:</td><td><div></div></td></tr><tr><td style="font-weight:bold;vertical-align:top;">domain</td><td style="vertical-align:top;">:</td><td><div></div></td></tr><tr><td style="font-weight:bold;vertical-align:top;">expires</td><td style="vertical-align:top;">:</td><td><div></div></td></tr><tr><td style="font-weight:bold;vertical-align:top;">httponly</td><td style="vertical-align:top;">:</td><td><div></div></td></tr><tr><td style="font-weight:bold;vertical-align:top;">max-age</td><td style="vertical-align:top;">:</td><td><div></div></td></tr><tr><td style="font-weight:bold;vertical-align:top;">path</td><td style="vertical-align:top;">:</td><td><div></div></td></tr><tr><td style="font-weight:bold;vertical-align:top;">secure</td><td style="vertical-align:top;">:</td><td><div></div></td></tr><tr><td style="font-weight:bold;vertical-align:top;">version</td><td style="vertical-align:top;">:</td><td><div></div></td></tr></table></div></td></tr></table></div></td></tr><tr><td style="font-weight:bold;vertical-align:top;">env</td><td style="vertical-align:top;">:</td><td><div><table><tr><td style="font-weight:bold;vertical-align:top;">HTTP_ACCEPT</td><td style="vertical-align:top;">:</td><td><div>text/html,application/xhtml+xml,application/xml;q=0.9,image/webp,*/*;q=0.8</div></td></tr><tr><td style="font-weight:bold;vertical-align:top;">HTTP_ACCEPT_ENCODING</td><td style="vertical-align:top;">:</td><td><div>gzip, deflate, sdch</div></td></tr><tr><td style="font-weight:bold;vertical-align:top;">HTTP_ACCEPT_LANGUAGE</td><td style="vertical-align:top;">:</td><td><div>es-ES,es;q=0.8</div></td></tr><tr><td style="font-weight:bold;vertical-align:top;">HTTP_CACHE_CONTROL</td><td style="vertical-align:top;">:</td><td><div>max-age=0</div></td></tr><tr><td style="font-weight:bold;vertical-align:top;">HTTP_CONNECTION</td><td style="vertical-align:top;">:</td><td><div>keep-alive</div></td></tr><tr><td style="font-weight:bold;vertical-align:top;">HTTP_COOKIE</td><td style="vertical-align:top;">:</td><td><div>session_id_admin=127.0.0.1-591c72fb-dbb8-4d8f-9d08-d91fca6ab26f; session_id_repuestos=127.0.0.1-ccd34025-352d-4af0-aaa2-0c5163ec29cf</div></td></tr><tr><td style="font-weight:bold;vertical-align:top;">HTTP_HOST</td><td style="vertical-align:top;">:</td><td><div>localhost:8000</div></td></tr><tr><td style="font-weight:bold;vertical-align:top;">HTTP_REFERER</td><td style="vertical-align:top;">:</td><td><div>http://localhost:8000/Repuestos/Condensadores/Electroliticos/new/C_Electroliticos?_signature=63ade9c5222e7ed0bac7941356c4c8c6d0275bb5</div></td></tr><tr><td style="font-weight:bold;vertical-align:top;">HTTP_UPGRADE_INSECURE_REQUESTS</td><td style="vertical-align:top;">:</td><td><div>1</div></td></tr><tr><td style="font-weight:bold;vertical-align:top;">HTTP_USER_AGENT</td><td style="vertical-align:top;">:</td><td><div>Mozilla/5.0 (X11; Linux i686 (x86_64)) AppleWebKit/537.36 (KHTML, like Gecko) Chrome/44.0.2403.155 Safari/537.36</div></td></tr><tr><td style="font-weight:bold;vertical-align:top;">PATH_INFO</td><td style="vertical-align:top;">:</td><td><div>/Repuestos/Condensadores/Electroliticos</div></td></tr><tr><td style="font-weight:bold;vertical-align:top;">QUERY_STRING</td><td style="vertical-align:top;">:</td><td><div>_signature=b02235edeceadd471d2f472a25dd4bb99909f20d</div></td></tr><tr><td style="font-weight:bold;vertical-align:top;">REMOTE_ADDR</td><td style="vertical-align:top;">:</td><td><div>127.0.0.1</div></td></tr><tr><td style="font-weight:bold;vertical-align:top;">REMOTE_PORT</td><td style="vertical-align:top;">:</td><td><div>58320</div></td></tr><tr><td style="font-weight:bold;vertical-align:top;">REQUEST_METHOD</td><td style="vertical-align:top;">:</td><td><div>GET</div></td></tr><tr><td style="font-weight:bold;vertical-align:top;">SCRIPT_NAME</td><td style="vertical-align:top;">:</td><td><div></div></td></tr><tr><td style="font-weight:bold;vertical-align:top;">SERVER_NAME</td><td style="vertical-align:top;">:</td><td><div>ismael-HP-630-Notebook-PC</div></td></tr><tr><td style="font-weight:bold;vertical-align:top;">SERVER_PORT</td><td style="vertical-align:top;">:</td><td><div>8000</div></td></tr><tr><td style="font-weight:bold;vertical-align:top;">SERVER_PROTOCOL</td><td style="vertical-align:top;">:</td><td><div>HTTP/1.1</div></td></tr><tr><td style="font-weight:bold;vertical-align:top;">SERVER_SOFTWARE</td><td style="vertical-align:top;">:</td><td><div>Rocket 1.2.6</div></td></tr><tr><td style="font-weight:bold;vertical-align:top;">app_folders</td><td style="vertical-align:top;">:</td><td><div>set([&#x27;/home/ismael/Escritorio/web2py/applications/admin/&#x27;, &#x27;/home/ismael/Escritorio/web2py/applications/Repuestos/&#x27;])</div></td></tr><tr><td style="font-weight:bold;vertical-align:top;">applications_parent</td><td style="vertical-align:top;">:</td><td><div>/home/ismael/Escritorio/web2py</div></td></tr><tr><td style="font-weight:bold;vertical-align:top;">cmd_args</td><td style="vertical-align:top;">:</td><td><div><table></table></div></td></tr><tr><td style="font-weight:bold;vertical-align:top;">cmd_options</td><td style="vertical-align:top;">:</td><td><div>&lt;Values at 0x177f248: {&#x27;verbose&#x27;: False, &#x27;ip&#x27;: &#x27;127.0.0.1&#x27;, &#x27;debuglevel&#x27;: 30, &#x27;with_scheduler&#x27;: False, &#x27;ips&#x27;: [&#x27;127.0.1.1&#x27;], &#x27;shutdown_timeout&#x27;: 5, &#x27;taskbar&#x27;: False, &#x27;with_coverage&#x27;: False, &#x27;scheduler_groups&#x27;: None, &#x27;port&#x27;: 8000, &#x27;maxthreads&#x27;: None, &#x27;softcron&#x27;: False, &#x27;server_name&#x27;: &#x27;ismael-HP-630-Notebook-PC&#x27;, &#x27;bpython&#x27;: False, &#x27;nogui&#x27;: True, &#x27;pid_filename&#x27;: &#x27;httpserver.pid&#x27;, &#x27;extcron&#x27;: False, &#x27;runcron&#x27;: False, &#x27;run_system_tests&#x27;: False, &#x27;test&#x27;: None, &#x27;folder&#x27;: &#x27;/home/ismael/Escritorio/web2py&#x27;, &#x27;config&#x27;: &#x27;&#x27;, &#x27;minthreads&#x27;: None, &#x27;shell&#x27;: None, &#x27;run&#x27;: &#x27;&#x27;, &#x27;log_filename&#x27;: &#x27;httpserver.log&#x27;, &#x27;profiler_dir&#x27;: None, &#x27;args&#x27;: [&#x27;&#x27;], &#x27;socket_timeout&#x27;: 5, &#x27;ssl_ca_certificate&#x27;: None, &#x27;scheduler&#x27;: None, &#x27;interfaces&#x27;: None, &#x27;ssl_private_key&#x27;: &#x27;&#x27;, &#x27;gae&#x27;: None, &#x27;password&#x27;: &#x27;1&#x27;, &#x27;request_queue_size&#x27;: 5, &#x27;ssl_certificate&#x27;: &#x27;&#x27;, &#x27;cronjob&#x27;: False, &#x27;numthreads&#x27;: None, &#x27;quiet&#x27;: False, &#x27;import_models&#x27;: False, &#x27;timeout&#x27;: 10, &#x27;plain&#x27;: False, &#x27;nobanner&#x27;: False}&gt;</div></td></tr><tr><td style="font-weight:bold;vertical-align:top;">db_sessions</td><td style="vertical-align:top;">:</td><td><div>set([])</div></td></tr><tr><td style="font-weight:bold;vertical-align:top;">debugging</td><td style="vertical-align:top;">:</td><td><div>False</div></td></tr><tr><td style="font-weight:bold;vertical-align:top;">gluon_parent</td><td style="vertical-align:top;">:</td><td><div>/home/ismael/Escritorio/web2py</div></td></tr><tr><td style="font-weight:bold;vertical-align:top;">http_accept</td><td style="vertical-align:top;">:</td><td><div>text/html,application/xhtml+xml,application/xml;q=0.9,image/webp,*/*;q=0.8</div></td></tr><tr><td style="font-weight:bold;vertical-align:top;">http_accept_encoding</td><td style="vertical-align:top;">:</td><td><div>gzip, deflate, sdch</div></td></tr><tr><td style="font-weight:bold;vertical-align:top;">http_accept_language</td><td style="vertical-align:top;">:</td><td><div>es-ES,es;q=0.8</div></td></tr><tr><td style="font-weight:bold;vertical-align:top;">http_cache_control</td><td style="vertical-align:top;">:</td><td><div>max-age=0</div></td></tr><tr><td style="font-weight:bold;vertical-align:top;">http_connection</td><td style="vertical-align:top;">:</td><td><div>keep-alive</div></td></tr><tr><td style="font-weight:bold;vertical-align:top;">http_cookie</td><td style="vertical-align:top;">:</td><td><div>session_id_admin=127.0.0.1-591c72fb-dbb8-4d8f-9d08-d91fca6ab26f; session_id_repuestos=127.0.0.1-ccd34025-352d-4af0-aaa2-0c5163ec29cf</div></td></tr><tr><td style="font-weight:bold;vertical-align:top;">http_host</td><td style="vertical-align:top;">:</td><td><div>localhost:8000</div></td></tr><tr><td style="font-weight:bold;vertical-align:top;">http_referer</td><td style="vertical-align:top;">:</td><td><div>http://localhost:8000/Repuestos/Condensadores/Electroliticos/new/C_Electroliticos?_signature=63ade9c5222e7ed0bac7941356c4c8c6d0275bb5</div></td></tr><tr><td style="font-weight:bold;vertical-align:top;">http_upgrade_insecure_requests</td><td style="vertical-align:top;">:</td><td><div>1</div></td></tr><tr><td style="font-weight:bold;vertical-align:top;">http_user_agent</td><td style="vertical-align:top;">:</td><td><div>Mozilla/5.0 (X11; Linux i686 (x86_64)) AppleWebKit/537.36 (KHTML, like Gecko) Chrome/44.0.2403.155 Safari/537.36</div></td></tr><tr><td style="font-weight:bold;vertical-align:top;">is_jython</td><td style="vertical-align:top;">:</td><td><div>False</div></td></tr><tr><td style="font-weight:bold;vertical-align:top;">is_pypy</td><td style="vertical-align:top;">:</td><td><div>False</div></td></tr><tr><td style="font-weight:bold;vertical-align:top;">is_source</td><td style="vertical-align:top;">:</td><td><div>True</div></td></tr><tr><td style="font-weight:bold;vertical-align:top;">local_hosts</td><td style="vertical-align:top;">:</td><td><div><table><tr><td><div>::1</div></td></tr><tr><td><div>127.0.1.1</div></td></tr><tr><td><div>::ffff:127.0.0.1</div></td></tr><tr><td><div>127.0.0.1</div></td></tr><tr><td><div>ismael-HP-630-Notebook-PC</div></td></tr></table></div></td></tr><tr><td style="font-weight:bold;vertical-align:top;">path_info</td><td style="vertical-align:top;">:</td><td><div>/Repuestos/Condensadores/Electroliticos</div></td></tr><tr><td style="font-weight:bold;vertical-align:top;">query_string</td><td style="vertical-align:top;">:</td><td><div>_signature=b02235edeceadd471d2f472a25dd4bb99909f20d</div></td></tr><tr><td style="font-weight:bold;vertical-align:top;">remote_addr</td><td style="vertical-align:top;">:</td><td><div>127.0.0.1</div></td></tr><tr><td style="font-weight:bold;vertical-align:top;">remote_port</td><td style="vertical-align:top;">:</td><td><div>58320</div></td></tr><tr><td style="font-weight:bold;vertical-align:top;">request_method</td><td style="vertical-align:top;">:</td><td><div>GET</div></td></tr><tr><td style="font-weight:bold;vertical-align:top;">request_uri</td><td style="vertical-align:top;">:</td><td><div>/Repuestos/Condensadores/Electroliticos?_signature=b02235edeceadd471d2f472a25dd4bb99909f20d</div></td></tr><tr><td style="font-weight:bold;vertical-align:top;">script_name</td><td style="vertical-align:top;">:</td><td><div></div></td></tr><tr><td style="font-weight:bold;vertical-align:top;">server_name</td><td style="vertical-align:top;">:</td><td><div>ismael-HP-630-Notebook-PC</div></td></tr><tr><td style="font-weight:bold;vertical-align:top;">server_port</td><td style="vertical-align:top;">:</td><td><div>8000</div></td></tr><tr><td style="font-weight:bold;vertical-align:top;">server_protocol</td><td style="vertical-align:top;">:</td><td><div>HTTP/1.1</div></td></tr><tr><td style="font-weight:bold;vertical-align:top;">server_software</td><td style="vertical-align:top;">:</td><td><div>Rocket 1.2.6</div></td></tr><tr><td style="font-weight:bold;vertical-align:top;">web2py_path</td><td style="vertical-align:top;">:</td><td><div>/home/ismael/Escritorio/web2py</div></td></tr><tr><td style="font-weight:bold;vertical-align:top;">web2py_version</td><td style="vertical-align:top;">:</td><td><div>2.9.11-stable+timestamp.2014.09.15.23.35.11</div></td></tr><tr><td style="font-weight:bold;vertical-align:top;">wsgi.errors</td><td style="vertical-align:top;">:</td><td><div>&lt;open file &#x27;&lt;stderr&gt;&#x27;, mode &#x27;w&#x27; at 0x7fba78f241e0&gt;</div></td></tr><tr><td style="font-weight:bold;vertical-align:top;">wsgi.file_wrapper</td><td style="vertical-align:top;">:</td><td><div>&lt;class wsgiref.util.FileWrapper at 0x1714600&gt;</div></td></tr><tr><td style="font-weight:bold;vertical-align:top;">wsgi.input</td><td style="vertical-align:top;">:</td><td><div>&lt;socket._fileobject object at 0x7fba503f39d0&gt;</div></td></tr><tr><td style="font-weight:bold;vertical-align:top;">wsgi.multiprocess</td><td style="vertical-align:top;">:</td><td><div>False</div></td></tr><tr><td style="font-weight:bold;vertical-align:top;">wsgi.multithread</td><td style="vertical-align:top;">:</td><td><div>True</div></td></tr><tr><td style="font-weight:bold;vertical-align:top;">wsgi.run_once</td><td style="vertical-align:top;">:</td><td><div>False</div></td></tr><tr><td style="font-weight:bold;vertical-align:top;">wsgi.url_scheme</td><td style="vertical-align:top;">:</td><td><div>http</div></td></tr><tr><td style="font-weight:bold;vertical-align:top;">wsgi.version</td><td style="vertical-align:top;">:</td><td><div><table><tr><td><div>1</div></td></tr><tr><td><div>0</div></td></tr></table></div></td></tr><tr><td style="font-weight:bold;vertical-align:top;">wsgi_errors</td><td style="vertical-align:top;">:</td><td><div>&lt;open file &#x27;&lt;stderr&gt;&#x27;, mode &#x27;w&#x27; at 0x7fba78f241e0&gt;</div></td></tr><tr><td style="font-weight:bold;vertical-align:top;">wsgi_file_wrapper</td><td style="vertical-align:top;">:</td><td><div>&lt;class wsgiref.util.FileWrapper at 0x1714600&gt;</div></td></tr><tr><td style="font-weight:bold;vertical-align:top;">wsgi_input</td><td style="vertical-align:top;">:</td><td><div>&lt;socket._fileobject object at 0x7fba503f39d0&gt;</div></td></tr><tr><td style="font-weight:bold;vertical-align:top;">wsgi_multiprocess</td><td style="vertical-align:top;">:</td><td><div>False</div></td></tr><tr><td style="font-weight:bold;vertical-align:top;">wsgi_multithread</td><td style="vertical-align:top;">:</td><td><div>True</div></td></tr><tr><td style="font-weight:bold;vertical-align:top;">wsgi_run_once</td><td style="vertical-align:top;">:</td><td><div>False</div></td></tr><tr><td style="font-weight:bold;vertical-align:top;">wsgi_url_scheme</td><td style="vertical-align:top;">:</td><td><div>http</div></td></tr><tr><td style="font-weight:bold;vertical-align:top;">wsgi_version</td><td style="vertical-align:top;">:</td><td><div><table><tr><td><div>1</div></td></tr><tr><td><div>0</div></td></tr></table></div></td></tr></table></div></td></tr><tr><td style="font-weight:bold;vertical-align:top;">extension</td><td style="vertical-align:top;">:</td><td><div>html</div></td></tr><tr><td style="font-weight:bold;vertical-align:top;">folder</td><td style="vertical-align:top;">:</td><td><div>/home/ismael/Escritorio/web2py/applications/Repuestos/</div></td></tr><tr><td style="font-weight:bold;vertical-align:top;">function</td><td style="vertical-align:top;">:</td><td><div>Electroliticos</div></td></tr><tr><td style="font-weight:bold;vertical-align:top;">global_settings</td><td style="vertical-align:top;">:</td><td><div><table><tr><td style="font-weight:bold;vertical-align:top;">app_folders</td><td style="vertical-align:top;">:</td><td><div>set([&#x27;/home/ismael/Escritorio/web2py/applications/admin/&#x27;, &#x27;/home/ismael/Escritorio/web2py/applications/Repuestos/&#x27;])</div></td></tr><tr><td style="font-weight:bold;vertical-align:top;">applications_parent</td><td style="vertical-align:top;">:</td><td><div>/home/ismael/Escritorio/web2py</div></td></tr><tr><td style="font-weight:bold;vertical-align:top;">cmd_args</td><td style="vertical-align:top;">:</td><td><div><table></table></div></td></tr><tr><td style="font-weight:bold;vertical-align:top;">cmd_options</td><td style="vertical-align:top;">:</td><td><div>&lt;Values at 0x177f248: {&#x27;verbose&#x27;: False, &#x27;ip&#x27;: &#x27;127.0.0.1&#x27;, &#x27;debuglevel&#x27;: 30, &#x27;with_scheduler&#x27;: False, &#x27;ips&#x27;: [&#x27;127.0.1.1&#x27;], &#x27;shutdown_timeout&#x27;: 5, &#x27;taskbar&#x27;: False, &#x27;with_coverage&#x27;: False, &#x27;scheduler_groups&#x27;: None, &#x27;port&#x27;: 8000, &#x27;maxthreads&#x27;: None, &#x27;softcron&#x27;: False, &#x27;server_name&#x27;: &#x27;ismael-HP-630-Notebook-PC&#x27;, &#x27;bpython&#x27;: False, &#x27;nogui&#x27;: True, &#x27;pid_filename&#x27;: &#x27;httpserver.pid&#x27;, &#x27;extcron&#x27;: False, &#x27;runcron&#x27;: False, &#x27;run_system_tests&#x27;: False, &#x27;test&#x27;: None, &#x27;folder&#x27;: &#x27;/home/ismael/Escritorio/web2py&#x27;, &#x27;config&#x27;: &#x27;&#x27;, &#x27;minthreads&#x27;: None, &#x27;shell&#x27;: None, &#x27;run&#x27;: &#x27;&#x27;, &#x27;log_filename&#x27;: &#x27;httpserver.log&#x27;, &#x27;profiler_dir&#x27;: None, &#x27;args&#x27;: [&#x27;&#x27;], &#x27;socket_timeout&#x27;: 5, &#x27;ssl_ca_certificate&#x27;: None, &#x27;scheduler&#x27;: None, &#x27;interfaces&#x27;: None, &#x27;ssl_private_key&#x27;: &#x27;&#x27;, &#x27;gae&#x27;: None, &#x27;password&#x27;: &#x27;1&#x27;, &#x27;request_queue_size&#x27;: 5, &#x27;ssl_certificate&#x27;: &#x27;&#x27;, &#x27;cronjob&#x27;: False, &#x27;numthreads&#x27;: None, &#x27;quiet&#x27;: False, &#x27;import_models&#x27;: False, &#x27;timeout&#x27;: 10, &#x27;plain&#x27;: False, &#x27;nobanner&#x27;: False}&gt;</div></td></tr><tr><td style="font-weight:bold;vertical-align:top;">db_sessions</td><td style="vertical-align:top;">:</td><td><div>set([])</div></td></tr><tr><td style="font-weight:bold;vertical-align:top;">debugging</td><td style="vertical-align:top;">:</td><td><div>False</div></td></tr><tr><td style="font-weight:bold;vertical-align:top;">gluon_parent</td><td style="vertical-align:top;">:</td><td><div>/home/ismael/Escritorio/web2py</div></td></tr><tr><td style="font-weight:bold;vertical-align:top;">is_jython</td><td style="vertical-align:top;">:</td><td><div>False</div></td></tr><tr><td style="font-weight:bold;vertical-align:top;">is_pypy</td><td style="vertical-align:top;">:</td><td><div>False</div></td></tr><tr><td style="font-weight:bold;vertical-align:top;">is_source</td><td style="vertical-align:top;">:</td><td><div>True</div></td></tr><tr><td style="font-weight:bold;vertical-align:top;">local_hosts</td><td style="vertical-align:top;">:</td><td><div><table><tr><td><div>::1</div></td></tr><tr><td><div>127.0.1.1</div></td></tr><tr><td><div>::ffff:127.0.0.1</div></td></tr><tr><td><div>127.0.0.1</div></td></tr><tr><td><div>ismael-HP-630-Notebook-PC</div></td></tr></table></div></td></tr><tr><td style="font-weight:bold;vertical-align:top;">web2py_version</td><td style="vertical-align:top;">:</td><td><div>2.9.11-stable+timestamp.2014.09.15.23.35.11</div></td></tr></table></div></td></tr><tr><td style="font-weight:bold;vertical-align:top;">is_https</td><td style="vertical-align:top;">:</td><td><div>False</div></td></tr><tr><td style="font-weight:bold;vertical-align:top;">is_local</td><td style="vertical-align:top;">:</td><td><div>True</div></td></tr><tr><td style="font-weight:bold;vertical-align:top;">is_restful</td><td style="vertical-align:top;">:</td><td><div>False</div></td></tr><tr><td style="font-weight:bold;vertical-align:top;">is_sheduler</td><td style="vertical-align:top;">:</td><td><div>None</div></td></tr><tr><td style="font-weight:bold;vertical-align:top;">is_shell</td><td style="vertical-align:top;">:</td><td><div>None</div></td></tr><tr><td style="font-weight:bold;vertical-align:top;">now</td><td style="vertical-align:top;">:</td><td><div>datetime.datetime(2015, 9, 30, 20, 15, 42, 874096)</div></td></tr><tr><td style="font-weight:bold;vertical-align:top;">raw_args</td><td style="vertical-align:top;">:</td><td><div></div></td></tr><tr><td style="font-weight:bold;vertical-align:top;">raw_extension</td><td style="vertical-align:top;">:</td><td><div>None</div></td></tr><tr><td style="font-weight:bold;vertical-align:top;">url</td><td style="vertical-align:top;">:</td><td><div>/Repuestos/Condensadores/Electroliticos</div></td></tr><tr><td style="font-weight:bold;vertical-align:top;">utcnow</td><td style="vertical-align:top;">:</td><td><div>datetime.datetime(2015, 9, 30, 18, 15, 42, 874140)</div></td></tr><tr><td style="font-weight:bold;vertical-align:top;">uuid</td><td style="vertical-align:top;">:</td><td><div>Repuestos/127.0.0.1.2015-09-30.20-15-42.cb952dee-d194-4d5c-8359-8942dc2f257f</div></td></tr><tr><td style="font-weight:bold;vertical-align:top;">wsgi</td><td style="vertical-align:top;">:</td><td><div>&lt;gluon.main.LazyWSGI object at 0x7fba60490850&gt;</div></td></tr></table></div>'
tRp62
sS'frames'
p63
(lp64
(dp65
S'file'
p66
S'/home/ismael/Escritorio/web2py/gluon/restricted.py'
p67
sS'dump'
p68
(dp69
S'environment'
p70
S"{'A': <class 'gluon.html.A'>, 'ANY_OF': <class 'gluon.validators.ANY_OF'>, 'ASSIGNJS': <function ASSIGNJS>, 'Auth': <class 'gluon.tools.Auth'>, 'B': <class 'gluon.html.B'>, 'BEAUTIFY': <class 'gluon.html.BEAUTIFY'>, 'BODY': <class 'gluon.html.BODY'>, 'BR': <class 'gluon.html.BR'>, 'BUTTON': <class 'gluon.html.BUTTON'>, 'CAT': <class 'gluon.html.CAT'>, ...}"
p71
sS'ccode'
p72
S'<code object <module> at 0x7fba503f32b0, file "/...py/applications/Repuestos/models/db.py", line 11>'
p73
ssS'lnum'
p74
I224
sS'lines'
p75
(dp76
I224
S'        exec ccode in environment'
p77
sI225
S'    except HTTP:'
p78
sI226
S'        raise'
p79
sI227
S'    except RestrictedError:'
p80
sI228
S'        # do not encapsulate (obfuscate) the original RestrictedError'
p81
sI219
S'    try:'
p82
sI220
S'        if isinstance(code, types.CodeType):'
p83
sI221
S'            ccode = code'
p84
sI222
S'        else:'
p85
sI223
S'            ccode = compile2(code, layer)'
p86
ssS'call'
p87
S"(code='# -*- coding: utf-8 -*-\\n\\n#######################...),         \\n        )\\ndb.Diac.id.readable=False\\n\\n', environment={'A': <class 'gluon.html.A'>, 'ANY_OF': <class 'gluon.validators.ANY_OF'>, 'ASSIGNJS': <function ASSIGNJS>, 'Auth': <class 'gluon.tools.Auth'>, 'B': <class 'gluon.html.B'>, 'BEAUTIFY': <class 'gluon.html.BEAUTIFY'>, 'BODY': <class 'gluon.html.BODY'>, 'BR': <class 'gluon.html.BR'>, 'BUTTON': <class 'gluon.html.BUTTON'>, 'CAT': <class 'gluon.html.CAT'>, ...}, layer='/home/ismael/Escritorio/web2py/applications/Repuestos/models/db.py')"
p88
sS'func'
p89
S'restricted'
p90
sa(dp91
g66
S'/home/ismael/Escritorio/web2py/applications/Repuestos/models/db.py'
p92
sg68
(dp93
S'Field'
p94
S"<class 'gluon.dal.Field'>"
p95
sS'builtinTrue'
p96
S'True'
p97
sS'notnull'
p98
S'undefined'
p99
sS'label'
p100
g99
ssg74
I166
sg75
(dp101
I161
S"db.define_table('Electroliticos',"
p102
sI162
S'        Field(\'descripcion\',\'string\',label="Capacidad"),'
p103
sI163
S'        Field(\'capacidad\',\'string\',label="Capacidad",notnull=True),'
p104
sI164
S"        Field('medida', db.Capacidades,notnull=True),"
p105
sI165
S'        Field(\'tension\',\'integer\',label="Tensi\xc3\xb3n Maxima (V)"),'
p106
sI166
S'        Field(\'cantidad\',\'integer\',label="Cantidad",notnull=True),'
p107
sI167
S'        )'
p108
sI168
S'db.Electroliticos.id.readable=False'
p109
sI169
S''
sI170
S"db.define_table('Resistencia',"
p110
ssg87
S'()'
p111
sg89
S'<module>'
p112
sa(dp113
g66
S'/home/ismael/Escritorio/web2py/gluon/dal.py'
p114
sg68
(dp115
S'fields'
p116
S'(<gluon.dal.Field object>, <gluon.dal.Field object>, <gluon.dal.Field object>, <gluon.dal.Field object>, <gluon.dal.Field object>)'
p117
sS'self'
p118
S'<DAL uri="sqlite://storage.sqlite">'
p119
sS'args'
p120
g21
sS'tablename'
p121
S"'Electroliticos'"
p122
sS'table'
p123
g99
sS'self.lazy_define_table'
p124
S'<bound method DAL.lazy_define_table of <DAL uri="sqlite://storage.sqlite">>'
p125
ssg74
I8414
sg75
(dp126
I8416
S'            self.tables.append(tablename)'
p127
sI8417
S'        return table'
p128
sI8418
S''
sI8409
S'                    % (tablename, invalid_args))'
p129
sI8410
S'        if self._lazy_tables and not tablename in self._LAZY_TABLES:'
p130
sI8411
S'            self._LAZY_TABLES[tablename] = (tablename, fields, args)'
p131
sI8412
S'            table = None'
p132
sI8413
S'        else:'
p133
sI8414
S'            table = self.lazy_define_table(tablename, *fields, **args)'
p134
sI8415
S'        if not tablename in self.tables:'
p135
ssg87
S'(self=<DAL uri="sqlite://storage.sqlite">, tablename=\'Electroliticos\', *fields=(<gluon.dal.Field object>, <gluon.dal.Field object>, <gluon.dal.Field object>, <gluon.dal.Field object>, <gluon.dal.Field object>), **args={})'
p136
sg89
S'define_table'
p137
sa(dp138
g66
S'/home/ismael/Escritorio/web2py/gluon/dal.py'
p139
sg68
(dp140
S'polymodel'
p141
S'None'
p142
ssg74
I8450
sg75
(dp143
I8448
S'                    table, migrate=migrate,'
p144
sI8449
S'                    fake_migrate=fake_migrate,'
p145
sI8450
S'                    polymodel=polymodel)'
p146
sI8451
S'            finally:'
p147
sI8452
S'                GLOBAL_LOCKER.release()'
p148
sI8453
S'        else:'
p149
sI8454
S'            table._dbt = None'
p150
sI8445
S'            try:'
p151
sI8446
S'                GLOBAL_LOCKER.acquire()'
p152
sI8447
S'                self._lastsql = self._adapter.create_table('
p153
ssg87
S'(self=<DAL uri="sqlite://storage.sqlite">, tablename=\'Electroliticos\', *fields=(<gluon.dal.Field object>, <gluon.dal.Field object>, <gluon.dal.Field object>, <gluon.dal.Field object>, <gluon.dal.Field object>), **args={})'
p154
sg89
S'lazy_define_table'
p155
sa(dp156
g66
S'/home/ismael/Escritorio/web2py/gluon/dal.py'
p157
sg68
(dp158
S'query'
p159
S"'CREATE TABLE Electroliticos(\\n    id INTEGER PRIM...tension INTEGER,\\n    cantidad INTEGER NOT NULL\\n);'"
p160
sS'self'
p161
S'<gluon.dal.SQLiteAdapter object>'
p162
sS'table'
p163
S'<Table Electroliticos (id,descripcion,capacidad,medida,tension,cantidad)>'
p164
sS'self.create_sequence_and_triggers'
p165
S'<bound method SQLiteAdapter.create_sequence_and_triggers of <gluon.dal.SQLiteAdapter object>>'
p166
ssg74
I1107
sg75
(dp167
I1102
S'            if table._dbt:'
p168
sI1103
S"                self.log('timestamp: %s\\n%s\\n'"
p169
sI1104
S'                         % (datetime.datetime.today().isoformat(),'
p170
sI1105
S'                            query), table)'
p171
sI1106
S'            if not fake_migrate:'
p172
sI1107
S'                self.create_sequence_and_triggers(query, table)'
p173
sI1108
S'                table._db.commit()'
p174
sI1109
S'                # Postgres geom fields are added now,'
p175
sI1110
S'                # after the table has been created'
p176
sI1111
S'                for query in postcreation_fields:'
p177
ssg87
S'(self=<gluon.dal.SQLiteAdapter object>, table=<Table Electroliticos (id,descripcion,capacidad,medida,tension,cantidad)>, migrate=True, fake_migrate=False, polymodel=None)'
p178
sg89
S'create_table'
p179
sa(dp180
g66
S'/home/ismael/Escritorio/web2py/gluon/dal.py'
p181
sg68
(dp182
S'query'
p183
S"'CREATE TABLE Electroliticos(\\n    id INTEGER PRIM...tension INTEGER,\\n    cantidad INTEGER NOT NULL\\n);'"
p184
sS'self'
p185
S'<gluon.dal.SQLiteAdapter object>'
p186
sS'self.execute'
p187
S'<bound method SQLiteAdapter.execute of <gluon.dal.SQLiteAdapter object>>'
p188
ssg74
I1949
sg75
(dp189
I1952
S'        if not self.connection: raise ValueError(a[0])'
p190
sI1953
S'        if not self.connection: return None'
p191
sI1944
S''
sI1945
S'    def constraint_name(self, table, fieldname):'
p192
sI1946
S"        return '%s_%s__constraint' % (table, fieldname)"
p193
sI1947
S''
sI1948
S'    def create_sequence_and_triggers(self, query, table, **args):'
p194
sI1949
S'        self.execute(query)'
p195
sI1950
S''
sI1951
S'    def log_execute(self, *a, **b):'
p196
ssg87
S"(self=<gluon.dal.SQLiteAdapter object>, query='CREATE TABLE Electroliticos(\\n    id INTEGER PRIM...tension INTEGER,\\n    cantidad INTEGER NOT NULL\\n);', table=<Table Electroliticos (id,descripcion,capacidad,medida,tension,cantidad)>, **args={})"
p197
sg89
S'create_sequence_and_triggers'
p198
sa(dp199
g66
S'/home/ismael/Escritorio/web2py/gluon/dal.py'
p200
sg68
(dp201
S'a'
S"('CREATE TABLE Electroliticos(\\n    id INTEGER PRIM...tension INTEGER,\\n    cantidad INTEGER NOT NULL\\n);',)"
p202
sS'self'
p203
S'<gluon.dal.SQLiteAdapter object>'
p204
sS'b'
g21
sS'self.log_execute'
p205
S'<bound method SQLiteAdapter.log_execute of <gluon.dal.SQLiteAdapter object>>'
p206
ssg74
I1967
sg75
(dp207
I1962
S'        self.db._timings.append((command, time.time()-t0))'
p208
sI1963
S'        del self.db._timings[:-TIMINGSSIZE]'
p209
sI1964
S'        return ret'
p210
sI1965
S''
sI1966
S'    def execute(self, *a, **b):'
p211
sI1967
S'        return self.log_execute(*a, **b)'
p212
sI1968
S''
sI1969
S'    def represent(self, obj, fieldtype):'
p213
sI1970
S'        field_is_type = fieldtype.startswith'
p214
sI1971
S'        if isinstance(obj, CALLABLETYPES):'
p215
ssg87
S"(self=<gluon.dal.SQLiteAdapter object>, *a=('CREATE TABLE Electroliticos(\\n    id INTEGER PRIM...tension INTEGER,\\n    cantidad INTEGER NOT NULL\\n);',), **b={})"
p216
sg89
S'execute'
p217
sa(dp218
g66
S'/home/ismael/Escritorio/web2py/gluon/dal.py'
p219
sg68
(dp220
S'a'
S"('CREATE TABLE Electroliticos(\\n    id INTEGER PRIM...tension INTEGER,\\n    cantidad INTEGER NOT NULL\\n);',)"
p221
sS'b'
g21
sS'self'
p222
S'<gluon.dal.SQLiteAdapter object>'
p223
sS'ret'
p224
g99
sS'self.cursor'
p225
S'<sqlite3.Cursor object>'
p226
sS'command'
p227
S"'CREATE TABLE Electroliticos(\\n    id INTEGER PRIM...tension INTEGER,\\n    cantidad INTEGER NOT NULL\\n);'"
p228
sS'self.cursor.execute'
p229
S'<built-in method execute of sqlite3.Cursor object>'
p230
ssg74
I1961
sg75
(dp231
I1956
S'            command = self.filter_sql_command(command)'
p232
sI1957
S'        if self.db._debug:'
p233
sI1958
S"            LOGGER.debug('SQL: %s' % command)"
p234
sI1959
S'        self.db._lastsql = command'
p235
sI1960
S'        t0 = time.time()'
p236
sI1961
S'        ret = self.cursor.execute(command, *a[1:], **b)'
p237
sI1962
S'        self.db._timings.append((command, time.time()-t0))'
p238
sI1963
S'        del self.db._timings[:-TIMINGSSIZE]'
p239
sI1964
S'        return ret'
p240
sI1965
S''
ssg87
S"(self=<gluon.dal.SQLiteAdapter object>, *a=('CREATE TABLE Electroliticos(\\n    id INTEGER PRIM...tension INTEGER,\\n    cantidad INTEGER NOT NULL\\n);',), **b={})"
p241
sg89
S'log_execute'
p242
sasS'pyver'
p243
S'Python 2.7.5+: /usr/bin/python (prefix: /usr)'
p244
sS'session'
p245
g61
(S's\xfa\x08\x00\x00<div><table><tr><td style="font-weight:bold;vertical-align:top;">auth</td><td style="vertical-align:top;">:</td><td><div><table><tr><td style="font-weight:bold;vertical-align:top;">expiration</td><td style="vertical-align:top;">:</td><td><div>3600</div></td></tr><tr><td style="font-weight:bold;vertical-align:top;">hmac_key</td><td style="vertical-align:top;">:</td><td><div>ecf56ad4-209c-4f87-a2ff-899326a1fe16</div></td></tr><tr><td style="font-weight:bold;vertical-align:top;">last_visit</td><td style="vertical-align:top;">:</td><td><div>datetime.datetime(2015, 9, 30, 20, 14, 11, 581265)</div></td></tr><tr><td style="font-weight:bold;vertical-align:top;">remember_me</td><td style="vertical-align:top;">:</td><td><div>False</div></td></tr><tr><td style="font-weight:bold;vertical-align:top;">user</td><td style="vertical-align:top;">:</td><td><div><table><tr><td style="font-weight:bold;vertical-align:top;">email</td><td style="vertical-align:top;">:</td><td><div>ismaeldiazvelasco@gmail.com</div></td></tr><tr><td style="font-weight:bold;vertical-align:top;">first_name</td><td style="vertical-align:top;">:</td><td><div>Ismael</div></td></tr><tr><td style="font-weight:bold;vertical-align:top;">id</td><td style="vertical-align:top;">:</td><td><div>1L</div></td></tr><tr><td style="font-weight:bold;vertical-align:top;">last_name</td><td style="vertical-align:top;">:</td><td><div>Diaz Velasco</div></td></tr><tr><td style="font-weight:bold;vertical-align:top;">registration_id</td><td style="vertical-align:top;">:</td><td><div></div></td></tr><tr><td style="font-weight:bold;vertical-align:top;">registration_key</td><td style="vertical-align:top;">:</td><td><div></div></td></tr><tr><td style="font-weight:bold;vertical-align:top;">reset_password_key</td><td style="vertical-align:top;">:</td><td><div></div></td></tr></table></div></td></tr><tr><td style="font-weight:bold;vertical-align:top;">user_groups</td><td style="vertical-align:top;">:</td><td><div><table><tr><td style="font-weight:bold;vertical-align:top;">1</td><td style="vertical-align:top;">:</td><td><div>user_1</div></td></tr></table></div></td></tr></table></div></td></tr><tr><td style="font-weight:bold;vertical-align:top;">flash</td><td style="vertical-align:top;">:</td><td><div>None</div></td></tr></table></div>'
tRp246
sS'etype'
p247
S"<class 'sqlite3.OperationalError'>"
p248
sS'date'
p249
S'Wed Sep 30 20:15:42 2015'
p250
sS'response'
p251
g61
(S's4\x18\x00\x00<div><table><tr><td style="font-weight:bold;vertical-align:top;">body</td><td style="vertical-align:top;">:</td><td><div>&lt;cStringIO.StringO object at 0x7fba5c3c97d8&gt;</div></td></tr><tr><td style="font-weight:bold;vertical-align:top;">cookies</td><td style="vertical-align:top;">:</td><td><div><table><tr><td style="font-weight:bold;vertical-align:top;">session_id_repuestos</td><td style="vertical-align:top;">:</td><td><div>127.0.0.1-ccd34025-352d-4af0-aaa2-0c5163ec29cf<table><tr><td style="font-weight:bold;vertical-align:top;">comment</td><td style="vertical-align:top;">:</td><td><div></div></td></tr><tr><td style="font-weight:bold;vertical-align:top;">domain</td><td style="vertical-align:top;">:</td><td><div></div></td></tr><tr><td style="font-weight:bold;vertical-align:top;">expires</td><td style="vertical-align:top;">:</td><td><div></div></td></tr><tr><td style="font-weight:bold;vertical-align:top;">httponly</td><td style="vertical-align:top;">:</td><td><div></div></td></tr><tr><td style="font-weight:bold;vertical-align:top;">max-age</td><td style="vertical-align:top;">:</td><td><div></div></td></tr><tr><td style="font-weight:bold;vertical-align:top;">path</td><td style="vertical-align:top;">:</td><td><div>/</div></td></tr><tr><td style="font-weight:bold;vertical-align:top;">secure</td><td style="vertical-align:top;">:</td><td><div></div></td></tr><tr><td style="font-weight:bold;vertical-align:top;">version</td><td style="vertical-align:top;">:</td><td><div></div></td></tr></table></div></td></tr></table></div></td></tr><tr><td style="font-weight:bold;vertical-align:top;">delimiters</td><td style="vertical-align:top;">:</td><td><div><table><tr><td><div>{{</div></td></tr><tr><td><div>}}</div></td></tr></table></div></td></tr><tr><td style="font-weight:bold;vertical-align:top;">files</td><td style="vertical-align:top;">:</td><td><div><table></table></div></td></tr><tr><td style="font-weight:bold;vertical-align:top;">flash</td><td style="vertical-align:top;">:</td><td><div></div></td></tr><tr><td style="font-weight:bold;vertical-align:top;">form_label_separator</td><td style="vertical-align:top;">:</td><td><div>: </div></td></tr><tr><td style="font-weight:bold;vertical-align:top;">formstyle</td><td style="vertical-align:top;">:</td><td><div>table3cols</div></td></tr><tr><td style="font-weight:bold;vertical-align:top;">generic_patterns</td><td style="vertical-align:top;">:</td><td><div><table><tr><td><div>*</div></td></tr></table></div></td></tr><tr><td style="font-weight:bold;vertical-align:top;">headers</td><td style="vertical-align:top;">:</td><td><div><table><tr><td style="font-weight:bold;vertical-align:top;">X-Powered-By</td><td style="vertical-align:top;">:</td><td><div>web2py</div></td></tr></table></div></td></tr><tr><td style="font-weight:bold;vertical-align:top;">menu</td><td style="vertical-align:top;">:</td><td><div><table></table></div></td></tr><tr><td style="font-weight:bold;vertical-align:top;">meta</td><td style="vertical-align:top;">:</td><td><div><table></table></div></td></tr><tr><td style="font-weight:bold;vertical-align:top;">models_to_run</td><td style="vertical-align:top;">:</td><td><div><table><tr><td><div>^\\w+\\.py$</div></td></tr><tr><td><div>^Condensadores/\\w+\\.py$</div></td></tr><tr><td><div>^Condensadores/Electroliticos/\\w+\\.py$</div></td></tr></table></div></td></tr><tr><td style="font-weight:bold;vertical-align:top;">postprocessing</td><td style="vertical-align:top;">:</td><td><div><table></table></div></td></tr><tr><td style="font-weight:bold;vertical-align:top;">session_client</td><td style="vertical-align:top;">:</td><td><div>127.0.0.1</div></td></tr><tr><td style="font-weight:bold;vertical-align:top;">session_cookie_compression_level</td><td style="vertical-align:top;">:</td><td><div>None</div></td></tr><tr><td style="font-weight:bold;vertical-align:top;">session_cookie_expires</td><td style="vertical-align:top;">:</td><td><div>None</div></td></tr><tr><td style="font-weight:bold;vertical-align:top;">session_cookie_key</td><td style="vertical-align:top;">:</td><td><div>None</div></td></tr><tr><td style="font-weight:bold;vertical-align:top;">session_data_name</td><td style="vertical-align:top;">:</td><td><div>session_data_repuestos</div></td></tr><tr><td style="font-weight:bold;vertical-align:top;">session_file</td><td style="vertical-align:top;">:</td><td><div>&lt;open file &#x27;/home/ismael/Escritorio/web2py/applications/Repuestos/sessions/089/0ed/127.0.0.1-ccd34025-352d-4af0-aaa2-0c5163ec29cf&#x27;, mode &#x27;rb+&#x27; at 0x7fba5087ed20&gt;</div></td></tr><tr><td style="font-weight:bold;vertical-align:top;">session_filename</td><td style="vertical-align:top;">:</td><td><div>/home/ismael/Escritorio/web2py/applications/Repuestos/sessions/127.0.0.1-ccd34025-352d-4af0-aaa2-0c5163ec29cf</div></td></tr><tr><td style="font-weight:bold;vertical-align:top;">session_hash</td><td style="vertical-align:top;">:</td><td><div>7bd58e7224ccef99fb3c4e47a264d603</div></td></tr><tr><td style="font-weight:bold;vertical-align:top;">session_id</td><td style="vertical-align:top;">:</td><td><div>127.0.0.1-ccd34025-352d-4af0-aaa2-0c5163ec29cf</div></td></tr><tr><td style="font-weight:bold;vertical-align:top;">session_id_name</td><td style="vertical-align:top;">:</td><td><div>session_id_repuestos</div></td></tr><tr><td style="font-weight:bold;vertical-align:top;">session_locked</td><td style="vertical-align:top;">:</td><td><div>True</div></td></tr><tr><td style="font-weight:bold;vertical-align:top;">session_masterapp</td><td style="vertical-align:top;">:</td><td><div>Repuestos</div></td></tr><tr><td style="font-weight:bold;vertical-align:top;">session_new</td><td style="vertical-align:top;">:</td><td><div>False</div></td></tr><tr><td style="font-weight:bold;vertical-align:top;">session_storage_type</td><td style="vertical-align:top;">:</td><td><div>file</div></td></tr><tr><td style="font-weight:bold;vertical-align:top;">status</td><td style="vertical-align:top;">:</td><td><div>200</div></td></tr><tr><td style="font-weight:bold;vertical-align:top;">view</td><td style="vertical-align:top;">:</td><td><div>Condensadores/Electroliticos.html</div></td></tr></table></div>'
tRp252
sS'locals'
p253
(dp254
S'a'
S"('CREATE TABLE Electroliticos(\\n    id INTEGER PRIM...tension INTEGER,\\n    cantidad INTEGER NOT NULL\\n);',)"
p255
sS'self'
p256
S'<gluon.dal.SQLiteAdapter object>'
p257
sS'b'
g21
sS'command'
p258
S"'CREATE TABLE Electroliticos(\\n    id INTEGER PRIM...tension INTEGER,\\n    cantidad INTEGER NOT NULL\\n);'"
p259
sS't0'
p260
S'1443636942.899648'
p261
sssS'traceback'
p262
S'Traceback (most recent call last):\n  File "/home/ismael/Escritorio/web2py/gluon/restricted.py", line 224, in restricted\n    exec ccode in environment\n  File "/home/ismael/Escritorio/web2py/applications/Repuestos/models/db.py", line 166, in <module>\n    Field(\'cantidad\',\'integer\',label="Cantidad",notnull=True),\n  File "/home/ismael/Escritorio/web2py/gluon/dal.py", line 8414, in define_table\n    table = self.lazy_define_table(tablename, *fields, **args)\n  File "/home/ismael/Escritorio/web2py/gluon/dal.py", line 8450, in lazy_define_table\n    polymodel=polymodel)\n  File "/home/ismael/Escritorio/web2py/gluon/dal.py", line 1107, in create_table\n    self.create_sequence_and_triggers(query, table)\n  File "/home/ismael/Escritorio/web2py/gluon/dal.py", line 1949, in create_sequence_and_triggers\n    self.execute(query)\n  File "/home/ismael/Escritorio/web2py/gluon/dal.py", line 1967, in execute\n    return self.log_execute(*a, **b)\n  File "/home/ismael/Escritorio/web2py/gluon/dal.py", line 1961, in log_execute\n    ret = self.cursor.execute(command, *a[1:], **b)\nOperationalError: table Electroliticos already exists\n'
p263
s.