(dp1
S'output'
p2
S"<class 'sqlite3.OperationalError'> Cannot add a NOT NULL column with default value NULL"
p3
sS'layer'
p4
S'/home/ismael/Escritorio/web2py/applications/Repuestos/models/db.py'
p5
sS'code'
p6
S'# -*- coding: utf-8 -*-\n\n#########################################################################\n## This scaffolding model makes your app work on Google App Engine too\n## File is released under public domain and you can use without limitations\n#########################################################################\n\n## if SSL/HTTPS is properly configured and you want all HTTP requests to\n## be redirected to HTTPS, uncomment the line below:\n# request.requires_https()\nimport datetime\n\nif not request.env.web2py_runtime_gae:\n    ## if NOT running on Google App Engine use SQLite or other DB\n    db = DAL(\'sqlite://storage.sqlite\',pool_size=1,check_reserved=[\'all\'])\nelse:\n    ## connect to Google BigTable (optional \'google:datastore://namespace\')\n    db = DAL(\'google:datastore+ndb\')\n    ## store sessions and tickets there\n    session.connect(request, response, db=db)\n    ## or store session in Memcache, Redis, etc.\n    ## from gluon.contrib.memdb import MEMDB\n    ## from google.appengine.api.memcache import Client\n    ## session.connect(request, response, db = MEMDB(Client()))\n\n## by default give a view/generic.extension to all actions from localhost\n## none otherwise. a pattern can be \'controller/function.extension\'\nresponse.generic_patterns = [\'*\'] if request.is_local else []\n\n## (optional) optimize handling of static files\n# response.optimize_css = \'concat,minify,inline\'\n# response.optimize_js = \'concat,minify,inline\'\n## (optional) static assets folder versioning\n# response.static_version = \'0.0.0\'\n#########################################################################\n## Here is sample code if you need for\n## - email capabilities\n## - authentication (registration, login, logout, ... )\n## - authorization (role based authorization)\n## - services (xml, csv, json, xmlrpc, jsonrpc, amf, rss)\n## - old style crud actions\n## (more options discussed in gluon/tools.py)\n#########################################################################\n\nfrom gluon.tools import Auth, Service, PluginManager\n\nauth = Auth(db)\nservice = Service()\nplugins = PluginManager()\n\n## create all tables needed by auth if not custom tables\nauth.define_tables(username=False, signature=False)\n\n## configure email\nmail = auth.settings.mailer\nmail.settings.server = \'logging\' if request.is_local else \'smtp.gmail.com:587\'\nmail.settings.sender = \'you@gmail.com\'\nmail.settings.login = \'username:password\'\n\n## configure auth policy\nauth.settings.registration_requires_verification = False\nauth.settings.registration_requires_approval = False\nauth.settings.reset_password_requires_verification = True\n\n## if you need to use OpenID, Facebook, MySpace, Twitter, Linkedin, etc.\n## register with janrain.com, write your domain:api_key in private/janrain.key\nfrom gluon.contrib.login_methods.janrain_account import use_janrain\nuse_janrain(auth, filename=\'private/janrain.key\')\n\n#########################################################################\n## Define your tables below (or better in another model file) for example\n##\n## >>> db.define_table(\'mytable\',Field(\'myfield\',\'string\'))\n##\n## Fields can be \'string\',\'text\',\'password\',\'integer\',\'double\',\'boolean\'\n##       \'date\',\'time\',\'datetime\',\'blob\',\'upload\', \'reference TABLENAME\'\n## There is an implicit \'id integer autoincrement\' field\n## Consult manual for more options, validators, etc.\n##\n## More API examples for controllers:\n##\n## >>> db.mytable.insert(myfield=\'value\')\n## >>> rows=db(db.mytable.myfield==\'value\').select(db.mytable.ALL)\n## >>> for row in rows: print row.id, row.myfield\n#########################################################################\n\n## after defining tables, uncomment below to enable auditing\n# auth.enable_record_versioning(db)\n\n## UNIDADES DE CAPACIDADES DE LOS CONDENSADORES ##\ndb.define_table(\'Capacidades\',\n\t\tField(\'medida_capacidad\',\'string\',label="Unidad"),\n\t\tformat=\'%(medida_capacidad)s\'\n\t\t)\n\n## COLORES DE LAS BANDAS DE LAS RESISTENCIAS ##\ndb.define_table(\'Colores_Resistencia\',\n\t\tField(\'Color_Banda\',\'string\',label="Color"),\n\t\tField(\'Valor\',\'integer\',label="Valor"),\n\t\tformat=\'%(Valor)s - %(Color_Banda)s\'\n\t\t)\n\ndb.define_table(\'Medidas_Resistencia\',\n\t\tField(\'unidad\',\'string\',label="Unidad"),\n\t\tformat=\'%(unidad)s\'\n\t\t)\n\t\t\ndb.define_table(\'Tolerancia\',\n\t\tField(\'Valor_Tol\',\'string\',label="Unidad"),\n\t\tformat=\'%(Valor_Tol)s\'\n\t\t)\n\t\t\ndb.define_table(\'Potencia_Disipada\',\n\t\tField(\'Valor_Potencia\',\'string\',label="Unidad"),\n\t\tformat=\'%(Valor_Potencia)s\'\n\t\t)\n\t\t\ndb.define_table(\'N_Patillas\',\n\t\tField(\'Numero_Patillas\',\'integer\',label="Unidad"),\n\t\tformat=\'%(Numero_Patillas)s\'\n\t\t)\n\t\t\ndb.define_table(\'Medida_Frecuencia\',\n\t\tField(\'Medida\',\'string\',label="Unidad"),\n\t\tformat=\'%(Medida)s\'\n\t\t)\n\t\t\ndb.define_table(\'Medida_Inductancia\',\n\t\tField(\'Medida\',\'string\',label="Unidad"),\n\t\tformat=\'%(Medida)s\'\n\t\t)\n\t\t\n\ndb.define_table(\'Ceramicos\',\n        Field(\'descripcion\',\'string\',label="Descripci\xc3\xb3n",notnull=True),\n        Field(\'capacidad\',\'integer\',label="Capacidad",notnull=True),\n        Field(\'medida\', db.Capacidades,notnull=True),\n        Field(\'tension\',\'integer\',label="Tensi\xc3\xb3n Maxima (V)"),\n        Field(\'cantidad\',\'integer\',label="Cantidad",notnull=True),        \n        )\ndb.Ceramicos.id.readable=False\n\ndb.define_table(\'Plastico\',\n        Field(\'descripcion\',\'string\',label="Descripci\xc3\xb3n",notnull=True),\n        Field(\'capacidad\',\'integer\',label="Capacidad",notnull=True),\n        Field(\'medida\', db.Capacidades,notnull=True),\n        Field(\'tension\',\'integer\',label="Tensi\xc3\xb3n Maxima (V)"),\n        Field(\'cantidad\',\'integer\',label="Cantidad",notnull=True),        \n        )\ndb.Plastico.id.readable=False\n\ndb.define_table(\'Lenteja\',\n        Field(\'descripcion\',\'string\',label="Descripci\xc3\xb3n",notnull=True),\n        Field(\'capacidad\',\'integer\',label="Capacidad",notnull=True),\n        Field(\'medida\', db.Capacidades,notnull=True),\n        Field(\'tension\',\'integer\',label="Tensi\xc3\xb3n Maxima (V)"),\n        Field(\'cantidad\',\'integer\',label="Cantidad",notnull=True),        \n        )\ndb.Lenteja.id.readable=False\n\ndb.define_table(\'Electroliticos\',\n        Field(\'descripcion\',\'string\',label="Descripci\xc3\xb3n",notnull=True),\n        Field(\'capacidad\',\'integer\',label="Capacidad",notnull=True),\n        Field(\'medida\', db.Capacidades,notnull=True),\n        Field(\'tension\',\'integer\',label="Tensi\xc3\xb3n Maxima (V)"),\n        Field(\'cantidad\',\'integer\',label="Cantidad",notnull=True),        \n        )\ndb.Electroliticos.id.readable=False\n\ndb.define_table(\'Resistencia\',\n\t\tField(\'valor\',\'integer\',label="Valor",notnull=True),\n\t\tField(\'medida_resistencia\',db.Medidas_Resistencia,notnull=True),\n        Field(\'banda_1\',db.Colores_Resistencia,notnull=True),\n        Field(\'banda_2\',db.Colores_Resistencia,notnull=True),\n        Field(\'banda_3\',db.Colores_Resistencia,notnull=True),\n        Field(\'tolerancia\',db.Tolerancia,notnull=True),\n        Field(\'Potencia\',db.Potencia_Disipada,notnull=True),\n        Field(\'cantidad\',\'integer\',label="Cantidad",notnull=True),        \n        )\ndb.Resistencia.id.readable=False\n\ndb.define_table(\'Potenciometro\',\n\t\tField(\'valor\',\'integer\',label="Valor",notnull=True),\n\t\tField(\'medida_resistencia\',db.Medidas_Resistencia,notnull=True),\n        Field(\'cantidad\',\'integer\',label="Cantidad",notnull=True),        \n        )\ndb.Potenciometro.id.readable=False\n\ndb.define_table(\'Transistor\',\n\t\tField(\'descripcion\',\'string\',label="Descripci\xc3\xb3n",notnull=True),\n\t\tField(\'transistor\',\'string\',label="Transistor",notnull=True),\n        Field(\'datasheet\',\'upload\',label="Datasheet",notnull=True),\n        Field(\'cantidad\',\'integer\',label="Cantidad",notnull=True),         \n        )\ndb.Transistor.id.readable=False\n\ndb.define_table(\'C_Integrado\',\n\t\tField(\'descripcion\',\'string\',label="Descripci\xc3\xb3n",notnull=True),\n\t\tField(\'numero_patillas\',db.N_Patillas,notnull=True),\n        Field(\'datasheet\',\'upload\',label="Datasheet",notnull=True),\n        Field(\'cantidad\',\'integer\',label="Cantidad",notnull=True),         \n        )\ndb.C_Integrado.id.readable=False\n\ndb.define_table(\'Cristal\',\n\t\tField(\'descripcion\',\'string\',label="Descripci\xc3\xb3n",notnull=True),\n        Field(\'frecuencia\',\'float\',label="Frecuencia",notnull=True),\n        Field(\'unidad_frecuencia\',db.Medida_Frecuencia,notnull=True),\n        Field(\'cantidad\',\'integer\',label="Cantidad",notnull=True),         \n        )\ndb.Cristal.id.readable=False\n\ndb.define_table(\'Rectificador\',\n\t\tField(\'descripcion\',\'string\',label="Descripci\xc3\xb3n",notnull=True),\n        Field(\'datasheet\',\'upload\',label="Datasheet",notnull=True),\n        Field(\'cantidad\',\'integer\',label="Cantidad",notnull=True),         \n        )\ndb.Rectificador.id.readable=False\n\ndb.define_table(\'Zener\',\n\t\tField(\'descripcion\',\'string\',label="Descripci\xc3\xb3n",notnull=True),\n        Field(\'datasheet\',\'upload\',label="Datasheet",notnull=True),\n        Field(\'cantidad\',\'integer\',label="Cantidad",notnull=True),         \n        )\ndb.Zener.id.readable=False\n\ndb.define_table(\'Bobina\',\n\t\tField(\'descripcion\',\'string\',label="Descripci\xc3\xb3n",notnull=True),\n        Field(\'inductancia\',\'integer\',label="Inductancia",notnull=True),\n        Field(\'unidad_inductancia\',db.Medida_Inductancia,notnull=True),\n        Field(\'cantidad\',\'integer\',label="Cantidad",notnull=True),         \n        )\ndb.Bobina.id.readable=False\n\n'
p7
sS'snapshot'
p8
(dp9
S'exception'
p10
(dp11
S'__module__'
p12
S"'sqlite3'"
p13
sS'__getslice__'
p14
S"<method-wrapper '__getslice__' of OperationalError object>"
p15
sS'__str__'
p16
S"<method-wrapper '__str__' of OperationalError object>"
p17
sS'__reduce__'
p18
S'<built-in method __reduce__ of OperationalError object>'
p19
sS'__dict__'
p20
S'{}'
p21
sS'__sizeof__'
p22
S'<built-in method __sizeof__ of OperationalError object>'
p23
sS'__weakref__'
p24
S'None'
p25
sS'__init__'
p26
S"<method-wrapper '__init__' of OperationalError object>"
p27
sS'__setattr__'
p28
S"<method-wrapper '__setattr__' of OperationalError object>"
p29
sS'__reduce_ex__'
p30
S'<built-in method __reduce_ex__ of OperationalError object>'
p31
sS'__new__'
p32
S'<built-in method __new__ of type object>'
p33
sS'__format__'
p34
S'<built-in method __format__ of OperationalError object>'
p35
sS'__class__'
p36
S"<class 'sqlite3.OperationalError'>"
p37
sS'__doc__'
p38
S'None'
p39
sS'__getitem__'
p40
S"<method-wrapper '__getitem__' of OperationalError object>"
p41
sS'__setstate__'
p42
S'<built-in method __setstate__ of OperationalError object>'
p43
sS'__getattribute__'
p44
S"<method-wrapper '__getattribute__' of OperationalError object>"
p45
sS'args'
p46
S"('Cannot add a NOT NULL column with default value NULL',)"
p47
sS'__subclasshook__'
p48
S'<built-in method __subclasshook__ of type object>'
p49
sS'__unicode__'
p50
S'<built-in method __unicode__ of OperationalError object>'
p51
sS'__delattr__'
p52
S"<method-wrapper '__delattr__' of OperationalError object>"
p53
sS'__repr__'
p54
S"<method-wrapper '__repr__' of OperationalError object>"
p55
sS'__hash__'
p56
S"<method-wrapper '__hash__' of OperationalError object>"
p57
ssS'evalue'
p58
S'Cannot add a NOT NULL column with default value NULL'
p59
sS'request'
p60
cgluon.html
XML_unpickle
p61
(S'sEW\x00\x00<div><table><tr><td style="font-weight:bold;vertical-align:top;">ajax</td><td style="vertical-align:top;">:</td><td><div>False</div></td></tr><tr><td style="font-weight:bold;vertical-align:top;">application</td><td style="vertical-align:top;">:</td><td><div>Repuestos</div></td></tr><tr><td style="font-weight:bold;vertical-align:top;">args</td><td style="vertical-align:top;">:</td><td><div><table></table></div></td></tr><tr><td style="font-weight:bold;vertical-align:top;">cid</td><td style="vertical-align:top;">:</td><td><div>None</div></td></tr><tr><td style="font-weight:bold;vertical-align:top;">client</td><td style="vertical-align:top;">:</td><td><div>127.0.0.1</div></td></tr><tr><td style="font-weight:bold;vertical-align:top;">controller</td><td style="vertical-align:top;">:</td><td><div>default</div></td></tr><tr><td style="font-weight:bold;vertical-align:top;">cookies</td><td style="vertical-align:top;">:</td><td><div><table><tr><td style="font-weight:bold;vertical-align:top;">session_id_admin</td><td style="vertical-align:top;">:</td><td><div>127.0.0.1-35b5ccad-6e0c-47e7-8eda-4542b911ade8<table><tr><td style="font-weight:bold;vertical-align:top;">comment</td><td style="vertical-align:top;">:</td><td><div></div></td></tr><tr><td style="font-weight:bold;vertical-align:top;">domain</td><td style="vertical-align:top;">:</td><td><div></div></td></tr><tr><td style="font-weight:bold;vertical-align:top;">expires</td><td style="vertical-align:top;">:</td><td><div></div></td></tr><tr><td style="font-weight:bold;vertical-align:top;">httponly</td><td style="vertical-align:top;">:</td><td><div></div></td></tr><tr><td style="font-weight:bold;vertical-align:top;">max-age</td><td style="vertical-align:top;">:</td><td><div></div></td></tr><tr><td style="font-weight:bold;vertical-align:top;">path</td><td style="vertical-align:top;">:</td><td><div></div></td></tr><tr><td style="font-weight:bold;vertical-align:top;">secure</td><td style="vertical-align:top;">:</td><td><div></div></td></tr><tr><td style="font-weight:bold;vertical-align:top;">version</td><td style="vertical-align:top;">:</td><td><div></div></td></tr></table></div></td></tr><tr><td style="font-weight:bold;vertical-align:top;">session_id_repuestos</td><td style="vertical-align:top;">:</td><td><div>127.0.0.1-7a4cd788-0bfb-4fd5-b952-c9ac91fe1f97<table><tr><td style="font-weight:bold;vertical-align:top;">comment</td><td style="vertical-align:top;">:</td><td><div></div></td></tr><tr><td style="font-weight:bold;vertical-align:top;">domain</td><td style="vertical-align:top;">:</td><td><div></div></td></tr><tr><td style="font-weight:bold;vertical-align:top;">expires</td><td style="vertical-align:top;">:</td><td><div></div></td></tr><tr><td style="font-weight:bold;vertical-align:top;">httponly</td><td style="vertical-align:top;">:</td><td><div></div></td></tr><tr><td style="font-weight:bold;vertical-align:top;">max-age</td><td style="vertical-align:top;">:</td><td><div></div></td></tr><tr><td style="font-weight:bold;vertical-align:top;">path</td><td style="vertical-align:top;">:</td><td><div></div></td></tr><tr><td style="font-weight:bold;vertical-align:top;">secure</td><td style="vertical-align:top;">:</td><td><div></div></td></tr><tr><td style="font-weight:bold;vertical-align:top;">version</td><td style="vertical-align:top;">:</td><td><div></div></td></tr></table></div></td></tr></table></div></td></tr><tr><td style="font-weight:bold;vertical-align:top;">env</td><td style="vertical-align:top;">:</td><td><div><table><tr><td style="font-weight:bold;vertical-align:top;">HTTP_ACCEPT</td><td style="vertical-align:top;">:</td><td><div>text/html,application/xhtml+xml,application/xml;q=0.9,image/webp,*/*;q=0.8</div></td></tr><tr><td style="font-weight:bold;vertical-align:top;">HTTP_ACCEPT_ENCODING</td><td style="vertical-align:top;">:</td><td><div>gzip, deflate, sdch</div></td></tr><tr><td style="font-weight:bold;vertical-align:top;">HTTP_ACCEPT_LANGUAGE</td><td style="vertical-align:top;">:</td><td><div>es-ES,es;q=0.8</div></td></tr><tr><td style="font-weight:bold;vertical-align:top;">HTTP_CONNECTION</td><td style="vertical-align:top;">:</td><td><div>keep-alive</div></td></tr><tr><td style="font-weight:bold;vertical-align:top;">HTTP_COOKIE</td><td style="vertical-align:top;">:</td><td><div>session_id_repuestos=127.0.0.1-7a4cd788-0bfb-4fd5-b952-c9ac91fe1f97; session_id_admin=127.0.0.1-35b5ccad-6e0c-47e7-8eda-4542b911ade8</div></td></tr><tr><td style="font-weight:bold;vertical-align:top;">HTTP_HOST</td><td style="vertical-align:top;">:</td><td><div>localhost:8000</div></td></tr><tr><td style="font-weight:bold;vertical-align:top;">HTTP_REFERER</td><td style="vertical-align:top;">:</td><td><div>http://localhost:8000/admin/default/site</div></td></tr><tr><td style="font-weight:bold;vertical-align:top;">HTTP_UPGRADE_INSECURE_REQUESTS</td><td style="vertical-align:top;">:</td><td><div>1</div></td></tr><tr><td style="font-weight:bold;vertical-align:top;">HTTP_USER_AGENT</td><td style="vertical-align:top;">:</td><td><div>Mozilla/5.0 (X11; Linux i686 (x86_64)) AppleWebKit/537.36 (KHTML, like Gecko) Chrome/44.0.2403.155 Safari/537.36</div></td></tr><tr><td style="font-weight:bold;vertical-align:top;">PATH_INFO</td><td style="vertical-align:top;">:</td><td><div>/Repuestos/default/index</div></td></tr><tr><td style="font-weight:bold;vertical-align:top;">QUERY_STRING</td><td style="vertical-align:top;">:</td><td><div></div></td></tr><tr><td style="font-weight:bold;vertical-align:top;">REMOTE_ADDR</td><td style="vertical-align:top;">:</td><td><div>127.0.0.1</div></td></tr><tr><td style="font-weight:bold;vertical-align:top;">REMOTE_PORT</td><td style="vertical-align:top;">:</td><td><div>33429</div></td></tr><tr><td style="font-weight:bold;vertical-align:top;">REQUEST_METHOD</td><td style="vertical-align:top;">:</td><td><div>GET</div></td></tr><tr><td style="font-weight:bold;vertical-align:top;">SCRIPT_NAME</td><td style="vertical-align:top;">:</td><td><div></div></td></tr><tr><td style="font-weight:bold;vertical-align:top;">SERVER_NAME</td><td style="vertical-align:top;">:</td><td><div>ismael-HP-630-Notebook-PC</div></td></tr><tr><td style="font-weight:bold;vertical-align:top;">SERVER_PORT</td><td style="vertical-align:top;">:</td><td><div>8000</div></td></tr><tr><td style="font-weight:bold;vertical-align:top;">SERVER_PROTOCOL</td><td style="vertical-align:top;">:</td><td><div>HTTP/1.1</div></td></tr><tr><td style="font-weight:bold;vertical-align:top;">SERVER_SOFTWARE</td><td style="vertical-align:top;">:</td><td><div>Rocket 1.2.6</div></td></tr><tr><td style="font-weight:bold;vertical-align:top;">app_folders</td><td style="vertical-align:top;">:</td><td><div>set([&#x27;/home/ismael/Escritorio/web2py/applications/admin/&#x27;, &#x27;/home/ismael/Escritorio/web2py/applications/Repuestos/&#x27;])</div></td></tr><tr><td style="font-weight:bold;vertical-align:top;">applications_parent</td><td style="vertical-align:top;">:</td><td><div>/home/ismael/Escritorio/web2py</div></td></tr><tr><td style="font-weight:bold;vertical-align:top;">cmd_args</td><td style="vertical-align:top;">:</td><td><div><table></table></div></td></tr><tr><td style="font-weight:bold;vertical-align:top;">cmd_options</td><td style="vertical-align:top;">:</td><td><div>&lt;Values at 0x2b74248: {&#x27;verbose&#x27;: False, &#x27;ip&#x27;: &#x27;127.0.0.1&#x27;, &#x27;debuglevel&#x27;: 30, &#x27;with_scheduler&#x27;: False, &#x27;ips&#x27;: [&#x27;127.0.1.1&#x27;], &#x27;shutdown_timeout&#x27;: 5, &#x27;taskbar&#x27;: False, &#x27;with_coverage&#x27;: False, &#x27;scheduler_groups&#x27;: None, &#x27;port&#x27;: 8000, &#x27;maxthreads&#x27;: None, &#x27;softcron&#x27;: False, &#x27;server_name&#x27;: &#x27;ismael-HP-630-Notebook-PC&#x27;, &#x27;bpython&#x27;: False, &#x27;nogui&#x27;: True, &#x27;pid_filename&#x27;: &#x27;httpserver.pid&#x27;, &#x27;extcron&#x27;: False, &#x27;runcron&#x27;: False, &#x27;run_system_tests&#x27;: False, &#x27;test&#x27;: None, &#x27;folder&#x27;: &#x27;/home/ismael/Escritorio/web2py&#x27;, &#x27;config&#x27;: &#x27;&#x27;, &#x27;minthreads&#x27;: None, &#x27;shell&#x27;: None, &#x27;run&#x27;: &#x27;&#x27;, &#x27;log_filename&#x27;: &#x27;httpserver.log&#x27;, &#x27;profiler_dir&#x27;: None, &#x27;args&#x27;: [&#x27;&#x27;], &#x27;socket_timeout&#x27;: 5, &#x27;ssl_ca_certificate&#x27;: None, &#x27;scheduler&#x27;: None, &#x27;interfaces&#x27;: None, &#x27;ssl_private_key&#x27;: &#x27;&#x27;, &#x27;gae&#x27;: None, &#x27;password&#x27;: &#x27;1&#x27;, &#x27;request_queue_size&#x27;: 5, &#x27;ssl_certificate&#x27;: &#x27;&#x27;, &#x27;cronjob&#x27;: False, &#x27;numthreads&#x27;: None, &#x27;quiet&#x27;: False, &#x27;import_models&#x27;: False, &#x27;timeout&#x27;: 10, &#x27;plain&#x27;: False, &#x27;nobanner&#x27;: False}&gt;</div></td></tr><tr><td style="font-weight:bold;vertical-align:top;">db_sessions</td><td style="vertical-align:top;">:</td><td><div>set([])</div></td></tr><tr><td style="font-weight:bold;vertical-align:top;">debugging</td><td style="vertical-align:top;">:</td><td><div>True</div></td></tr><tr><td style="font-weight:bold;vertical-align:top;">gluon_parent</td><td style="vertical-align:top;">:</td><td><div>/home/ismael/Escritorio/web2py</div></td></tr><tr><td style="font-weight:bold;vertical-align:top;">http_accept</td><td style="vertical-align:top;">:</td><td><div>text/html,application/xhtml+xml,application/xml;q=0.9,image/webp,*/*;q=0.8</div></td></tr><tr><td style="font-weight:bold;vertical-align:top;">http_accept_encoding</td><td style="vertical-align:top;">:</td><td><div>gzip, deflate, sdch</div></td></tr><tr><td style="font-weight:bold;vertical-align:top;">http_accept_language</td><td style="vertical-align:top;">:</td><td><div>es-ES,es;q=0.8</div></td></tr><tr><td style="font-weight:bold;vertical-align:top;">http_connection</td><td style="vertical-align:top;">:</td><td><div>keep-alive</div></td></tr><tr><td style="font-weight:bold;vertical-align:top;">http_cookie</td><td style="vertical-align:top;">:</td><td><div>session_id_repuestos=127.0.0.1-7a4cd788-0bfb-4fd5-b952-c9ac91fe1f97; session_id_admin=127.0.0.1-35b5ccad-6e0c-47e7-8eda-4542b911ade8</div></td></tr><tr><td style="font-weight:bold;vertical-align:top;">http_host</td><td style="vertical-align:top;">:</td><td><div>localhost:8000</div></td></tr><tr><td style="font-weight:bold;vertical-align:top;">http_referer</td><td style="vertical-align:top;">:</td><td><div>http://localhost:8000/admin/default/site</div></td></tr><tr><td style="font-weight:bold;vertical-align:top;">http_upgrade_insecure_requests</td><td style="vertical-align:top;">:</td><td><div>1</div></td></tr><tr><td style="font-weight:bold;vertical-align:top;">http_user_agent</td><td style="vertical-align:top;">:</td><td><div>Mozilla/5.0 (X11; Linux i686 (x86_64)) AppleWebKit/537.36 (KHTML, like Gecko) Chrome/44.0.2403.155 Safari/537.36</div></td></tr><tr><td style="font-weight:bold;vertical-align:top;">is_jython</td><td style="vertical-align:top;">:</td><td><div>False</div></td></tr><tr><td style="font-weight:bold;vertical-align:top;">is_pypy</td><td style="vertical-align:top;">:</td><td><div>False</div></td></tr><tr><td style="font-weight:bold;vertical-align:top;">is_source</td><td style="vertical-align:top;">:</td><td><div>True</div></td></tr><tr><td style="font-weight:bold;vertical-align:top;">local_hosts</td><td style="vertical-align:top;">:</td><td><div><table><tr><td><div>::1</div></td></tr><tr><td><div>127.0.1.1</div></td></tr><tr><td><div>::ffff:127.0.0.1</div></td></tr><tr><td><div>127.0.0.1</div></td></tr><tr><td><div>ismael-HP-630-Notebook-PC</div></td></tr></table></div></td></tr><tr><td style="font-weight:bold;vertical-align:top;">path_info</td><td style="vertical-align:top;">:</td><td><div>/Repuestos/default/index</div></td></tr><tr><td style="font-weight:bold;vertical-align:top;">query_string</td><td style="vertical-align:top;">:</td><td><div></div></td></tr><tr><td style="font-weight:bold;vertical-align:top;">remote_addr</td><td style="vertical-align:top;">:</td><td><div>127.0.0.1</div></td></tr><tr><td style="font-weight:bold;vertical-align:top;">remote_port</td><td style="vertical-align:top;">:</td><td><div>33429</div></td></tr><tr><td style="font-weight:bold;vertical-align:top;">request_method</td><td style="vertical-align:top;">:</td><td><div>GET</div></td></tr><tr><td style="font-weight:bold;vertical-align:top;">request_uri</td><td style="vertical-align:top;">:</td><td><div>/Repuestos/default/index</div></td></tr><tr><td style="font-weight:bold;vertical-align:top;">script_name</td><td style="vertical-align:top;">:</td><td><div></div></td></tr><tr><td style="font-weight:bold;vertical-align:top;">server_name</td><td style="vertical-align:top;">:</td><td><div>ismael-HP-630-Notebook-PC</div></td></tr><tr><td style="font-weight:bold;vertical-align:top;">server_port</td><td style="vertical-align:top;">:</td><td><div>8000</div></td></tr><tr><td style="font-weight:bold;vertical-align:top;">server_protocol</td><td style="vertical-align:top;">:</td><td><div>HTTP/1.1</div></td></tr><tr><td style="font-weight:bold;vertical-align:top;">server_software</td><td style="vertical-align:top;">:</td><td><div>Rocket 1.2.6</div></td></tr><tr><td style="font-weight:bold;vertical-align:top;">web2py_path</td><td style="vertical-align:top;">:</td><td><div>/home/ismael/Escritorio/web2py</div></td></tr><tr><td style="font-weight:bold;vertical-align:top;">web2py_version</td><td style="vertical-align:top;">:</td><td><div>2.9.11-stable+timestamp.2014.09.15.23.35.11</div></td></tr><tr><td style="font-weight:bold;vertical-align:top;">wsgi.errors</td><td style="vertical-align:top;">:</td><td><div>&lt;open file &#x27;&lt;stderr&gt;&#x27;, mode &#x27;w&#x27; at 0x7f703f82e1e0&gt;</div></td></tr><tr><td style="font-weight:bold;vertical-align:top;">wsgi.file_wrapper</td><td style="vertical-align:top;">:</td><td><div>&lt;class wsgiref.util.FileWrapper at 0x2b08600&gt;</div></td></tr><tr><td style="font-weight:bold;vertical-align:top;">wsgi.input</td><td style="vertical-align:top;">:</td><td><div>&lt;socket._fileobject object at 0x7f70301abe50&gt;</div></td></tr><tr><td style="font-weight:bold;vertical-align:top;">wsgi.multiprocess</td><td style="vertical-align:top;">:</td><td><div>False</div></td></tr><tr><td style="font-weight:bold;vertical-align:top;">wsgi.multithread</td><td style="vertical-align:top;">:</td><td><div>True</div></td></tr><tr><td style="font-weight:bold;vertical-align:top;">wsgi.run_once</td><td style="vertical-align:top;">:</td><td><div>False</div></td></tr><tr><td style="font-weight:bold;vertical-align:top;">wsgi.url_scheme</td><td style="vertical-align:top;">:</td><td><div>http</div></td></tr><tr><td style="font-weight:bold;vertical-align:top;">wsgi.version</td><td style="vertical-align:top;">:</td><td><div><table><tr><td><div>1</div></td></tr><tr><td><div>0</div></td></tr></table></div></td></tr><tr><td style="font-weight:bold;vertical-align:top;">wsgi_errors</td><td style="vertical-align:top;">:</td><td><div>&lt;open file &#x27;&lt;stderr&gt;&#x27;, mode &#x27;w&#x27; at 0x7f703f82e1e0&gt;</div></td></tr><tr><td style="font-weight:bold;vertical-align:top;">wsgi_file_wrapper</td><td style="vertical-align:top;">:</td><td><div>&lt;class wsgiref.util.FileWrapper at 0x2b08600&gt;</div></td></tr><tr><td style="font-weight:bold;vertical-align:top;">wsgi_input</td><td style="vertical-align:top;">:</td><td><div>&lt;socket._fileobject object at 0x7f70301abe50&gt;</div></td></tr><tr><td style="font-weight:bold;vertical-align:top;">wsgi_multiprocess</td><td style="vertical-align:top;">:</td><td><div>False</div></td></tr><tr><td style="font-weight:bold;vertical-align:top;">wsgi_multithread</td><td style="vertical-align:top;">:</td><td><div>True</div></td></tr><tr><td style="font-weight:bold;vertical-align:top;">wsgi_run_once</td><td style="vertical-align:top;">:</td><td><div>False</div></td></tr><tr><td style="font-weight:bold;vertical-align:top;">wsgi_url_scheme</td><td style="vertical-align:top;">:</td><td><div>http</div></td></tr><tr><td style="font-weight:bold;vertical-align:top;">wsgi_version</td><td style="vertical-align:top;">:</td><td><div><table><tr><td><div>1</div></td></tr><tr><td><div>0</div></td></tr></table></div></td></tr></table></div></td></tr><tr><td style="font-weight:bold;vertical-align:top;">extension</td><td style="vertical-align:top;">:</td><td><div>html</div></td></tr><tr><td style="font-weight:bold;vertical-align:top;">folder</td><td style="vertical-align:top;">:</td><td><div>/home/ismael/Escritorio/web2py/applications/Repuestos/</div></td></tr><tr><td style="font-weight:bold;vertical-align:top;">function</td><td style="vertical-align:top;">:</td><td><div>index</div></td></tr><tr><td style="font-weight:bold;vertical-align:top;">global_settings</td><td style="vertical-align:top;">:</td><td><div><table><tr><td style="font-weight:bold;vertical-align:top;">app_folders</td><td style="vertical-align:top;">:</td><td><div>set([&#x27;/home/ismael/Escritorio/web2py/applications/admin/&#x27;, &#x27;/home/ismael/Escritorio/web2py/applications/Repuestos/&#x27;])</div></td></tr><tr><td style="font-weight:bold;vertical-align:top;">applications_parent</td><td style="vertical-align:top;">:</td><td><div>/home/ismael/Escritorio/web2py</div></td></tr><tr><td style="font-weight:bold;vertical-align:top;">cmd_args</td><td style="vertical-align:top;">:</td><td><div><table></table></div></td></tr><tr><td style="font-weight:bold;vertical-align:top;">cmd_options</td><td style="vertical-align:top;">:</td><td><div>&lt;Values at 0x2b74248: {&#x27;verbose&#x27;: False, &#x27;ip&#x27;: &#x27;127.0.0.1&#x27;, &#x27;debuglevel&#x27;: 30, &#x27;with_scheduler&#x27;: False, &#x27;ips&#x27;: [&#x27;127.0.1.1&#x27;], &#x27;shutdown_timeout&#x27;: 5, &#x27;taskbar&#x27;: False, &#x27;with_coverage&#x27;: False, &#x27;scheduler_groups&#x27;: None, &#x27;port&#x27;: 8000, &#x27;maxthreads&#x27;: None, &#x27;softcron&#x27;: False, &#x27;server_name&#x27;: &#x27;ismael-HP-630-Notebook-PC&#x27;, &#x27;bpython&#x27;: False, &#x27;nogui&#x27;: True, &#x27;pid_filename&#x27;: &#x27;httpserver.pid&#x27;, &#x27;extcron&#x27;: False, &#x27;runcron&#x27;: False, &#x27;run_system_tests&#x27;: False, &#x27;test&#x27;: None, &#x27;folder&#x27;: &#x27;/home/ismael/Escritorio/web2py&#x27;, &#x27;config&#x27;: &#x27;&#x27;, &#x27;minthreads&#x27;: None, &#x27;shell&#x27;: None, &#x27;run&#x27;: &#x27;&#x27;, &#x27;log_filename&#x27;: &#x27;httpserver.log&#x27;, &#x27;profiler_dir&#x27;: None, &#x27;args&#x27;: [&#x27;&#x27;], &#x27;socket_timeout&#x27;: 5, &#x27;ssl_ca_certificate&#x27;: None, &#x27;scheduler&#x27;: None, &#x27;interfaces&#x27;: None, &#x27;ssl_private_key&#x27;: &#x27;&#x27;, &#x27;gae&#x27;: None, &#x27;password&#x27;: &#x27;1&#x27;, &#x27;request_queue_size&#x27;: 5, &#x27;ssl_certificate&#x27;: &#x27;&#x27;, &#x27;cronjob&#x27;: False, &#x27;numthreads&#x27;: None, &#x27;quiet&#x27;: False, &#x27;import_models&#x27;: False, &#x27;timeout&#x27;: 10, &#x27;plain&#x27;: False, &#x27;nobanner&#x27;: False}&gt;</div></td></tr><tr><td style="font-weight:bold;vertical-align:top;">db_sessions</td><td style="vertical-align:top;">:</td><td><div>set([])</div></td></tr><tr><td style="font-weight:bold;vertical-align:top;">debugging</td><td style="vertical-align:top;">:</td><td><div>True</div></td></tr><tr><td style="font-weight:bold;vertical-align:top;">gluon_parent</td><td style="vertical-align:top;">:</td><td><div>/home/ismael/Escritorio/web2py</div></td></tr><tr><td style="font-weight:bold;vertical-align:top;">is_jython</td><td style="vertical-align:top;">:</td><td><div>False</div></td></tr><tr><td style="font-weight:bold;vertical-align:top;">is_pypy</td><td style="vertical-align:top;">:</td><td><div>False</div></td></tr><tr><td style="font-weight:bold;vertical-align:top;">is_source</td><td style="vertical-align:top;">:</td><td><div>True</div></td></tr><tr><td style="font-weight:bold;vertical-align:top;">local_hosts</td><td style="vertical-align:top;">:</td><td><div><table><tr><td><div>::1</div></td></tr><tr><td><div>127.0.1.1</div></td></tr><tr><td><div>::ffff:127.0.0.1</div></td></tr><tr><td><div>127.0.0.1</div></td></tr><tr><td><div>ismael-HP-630-Notebook-PC</div></td></tr></table></div></td></tr><tr><td style="font-weight:bold;vertical-align:top;">web2py_version</td><td style="vertical-align:top;">:</td><td><div>2.9.11-stable+timestamp.2014.09.15.23.35.11</div></td></tr></table></div></td></tr><tr><td style="font-weight:bold;vertical-align:top;">is_https</td><td style="vertical-align:top;">:</td><td><div>False</div></td></tr><tr><td style="font-weight:bold;vertical-align:top;">is_local</td><td style="vertical-align:top;">:</td><td><div>True</div></td></tr><tr><td style="font-weight:bold;vertical-align:top;">is_restful</td><td style="vertical-align:top;">:</td><td><div>False</div></td></tr><tr><td style="font-weight:bold;vertical-align:top;">is_sheduler</td><td style="vertical-align:top;">:</td><td><div>None</div></td></tr><tr><td style="font-weight:bold;vertical-align:top;">is_shell</td><td style="vertical-align:top;">:</td><td><div>None</div></td></tr><tr><td style="font-weight:bold;vertical-align:top;">now</td><td style="vertical-align:top;">:</td><td><div>datetime.datetime(2015, 9, 21, 19, 21, 43, 202501)</div></td></tr><tr><td style="font-weight:bold;vertical-align:top;">raw_args</td><td style="vertical-align:top;">:</td><td><div></div></td></tr><tr><td style="font-weight:bold;vertical-align:top;">raw_extension</td><td style="vertical-align:top;">:</td><td><div>None</div></td></tr><tr><td style="font-weight:bold;vertical-align:top;">url</td><td style="vertical-align:top;">:</td><td><div>/Repuestos/default/index</div></td></tr><tr><td style="font-weight:bold;vertical-align:top;">utcnow</td><td style="vertical-align:top;">:</td><td><div>datetime.datetime(2015, 9, 21, 17, 21, 43, 202530)</div></td></tr><tr><td style="font-weight:bold;vertical-align:top;">uuid</td><td style="vertical-align:top;">:</td><td><div>Repuestos/127.0.0.1.2015-09-21.19-21-43.5e4f174a-8f64-483c-a5f0-138ef6294597</div></td></tr><tr><td style="font-weight:bold;vertical-align:top;">wsgi</td><td style="vertical-align:top;">:</td><td><div>&lt;gluon.main.LazyWSGI object at 0x7f702c229f10&gt;</div></td></tr></table></div>'
tRp62
sS'frames'
p63
(lp64
(dp65
S'file'
p66
S'/home/ismael/Escritorio/web2py/gluon/restricted.py'
p67
sS'dump'
p68
(dp69
S'environment'
p70
S"{'A': <class 'gluon.html.A'>, 'ANY_OF': <class 'gluon.validators.ANY_OF'>, 'ASSIGNJS': <function ASSIGNJS>, 'Auth': <class 'gluon.tools.Auth'>, 'B': <class 'gluon.html.B'>, 'BEAUTIFY': <class 'gluon.html.BEAUTIFY'>, 'BODY': <class 'gluon.html.BODY'>, 'BR': <class 'gluon.html.BR'>, 'BUTTON': <class 'gluon.html.BUTTON'>, 'CAT': <class 'gluon.html.CAT'>, ...}"
p71
sS'ccode'
p72
S'<code object <module> at 0x7f702c233eb0, file "/...py/applications/Repuestos/models/db.py", line 11>'
p73
ssS'lnum'
p74
I224
sS'lines'
p75
(dp76
I224
S'        exec ccode in environment'
p77
sI225
S'    except HTTP:'
p78
sI226
S'        raise'
p79
sI227
S'    except RestrictedError:'
p80
sI228
S'        # do not encapsulate (obfuscate) the original RestrictedError'
p81
sI219
S'    try:'
p82
sI220
S'        if isinstance(code, types.CodeType):'
p83
sI221
S'            ccode = code'
p84
sI222
S'        else:'
p85
sI223
S'            ccode = compile2(code, layer)'
p86
ssS'call'
p87
S"(code='# -*- coding: utf-8 -*-\\n\\n#######################...         \\n        )\\ndb.Bobina.id.readable=False\\n\\n', environment={'A': <class 'gluon.html.A'>, 'ANY_OF': <class 'gluon.validators.ANY_OF'>, 'ASSIGNJS': <function ASSIGNJS>, 'Auth': <class 'gluon.tools.Auth'>, 'B': <class 'gluon.html.B'>, 'BEAUTIFY': <class 'gluon.html.BEAUTIFY'>, 'BODY': <class 'gluon.html.BODY'>, 'BR': <class 'gluon.html.BR'>, 'BUTTON': <class 'gluon.html.BUTTON'>, 'CAT': <class 'gluon.html.CAT'>, ...}, layer='/home/ismael/Escritorio/web2py/applications/Repuestos/models/db.py')"
p88
sS'func'
p89
S'restricted'
p90
sa(dp91
g66
S'/home/ismael/Escritorio/web2py/applications/Repuestos/models/db.py'
p92
sg68
(dp93
S'Field'
p94
S"<class 'gluon.dal.Field'>"
p95
sS'builtinTrue'
p96
S'True'
p97
sS'notnull'
p98
S'undefined'
p99
sS'label'
p100
g99
ssg74
I231
sg75
(dp101
I225
S'db.Zener.id.readable=False'
p102
sI226
S''
sI227
S"db.define_table('Bobina',"
p103
sI228
S'\t\tField(\'descripcion\',\'string\',label="Descripci\xc3\xb3n",notnull=True),'
p104
sI229
S'        Field(\'inductancia\',\'integer\',label="Inductancia",notnull=True),'
p105
sI230
S"        Field('unidad_inductancia',db.Medida_Inductancia,notnull=True),"
p106
sI231
S'        Field(\'cantidad\',\'integer\',label="Cantidad",notnull=True),'
p107
sI232
S'        )'
p108
sI233
S'db.Bobina.id.readable=False'
p109
sI234
S''
ssg87
S'()'
p110
sg89
S'<module>'
p111
sa(dp112
g66
S'/home/ismael/Escritorio/web2py/gluon/dal.py'
p113
sg68
(dp114
S'fields'
p115
S'(<gluon.dal.Field object>, <gluon.dal.Field object>, <gluon.dal.Field object>, <gluon.dal.Field object>)'
p116
sS'self'
p117
S'<DAL uri="sqlite://storage.sqlite">'
p118
sS'args'
p119
g21
sS'tablename'
p120
S"'Bobina'"
p121
sS'table'
p122
g99
sS'self.lazy_define_table'
p123
S'<bound method DAL.lazy_define_table of <DAL uri="sqlite://storage.sqlite">>'
p124
ssg74
I8414
sg75
(dp125
I8416
S'            self.tables.append(tablename)'
p126
sI8417
S'        return table'
p127
sI8418
S''
sI8409
S'                    % (tablename, invalid_args))'
p128
sI8410
S'        if self._lazy_tables and not tablename in self._LAZY_TABLES:'
p129
sI8411
S'            self._LAZY_TABLES[tablename] = (tablename, fields, args)'
p130
sI8412
S'            table = None'
p131
sI8413
S'        else:'
p132
sI8414
S'            table = self.lazy_define_table(tablename, *fields, **args)'
p133
sI8415
S'        if not tablename in self.tables:'
p134
ssg87
S'(self=<DAL uri="sqlite://storage.sqlite">, tablename=\'Bobina\', *fields=(<gluon.dal.Field object>, <gluon.dal.Field object>, <gluon.dal.Field object>, <gluon.dal.Field object>), **args={})'
p135
sg89
S'define_table'
p136
sa(dp137
g66
S'/home/ismael/Escritorio/web2py/gluon/dal.py'
p138
sg68
(dp139
S'polymodel'
p140
S'None'
p141
ssg74
I8450
sg75
(dp142
I8448
S'                    table, migrate=migrate,'
p143
sI8449
S'                    fake_migrate=fake_migrate,'
p144
sI8450
S'                    polymodel=polymodel)'
p145
sI8451
S'            finally:'
p146
sI8452
S'                GLOBAL_LOCKER.release()'
p147
sI8453
S'        else:'
p148
sI8454
S'            table._dbt = None'
p149
sI8445
S'            try:'
p150
sI8446
S'                GLOBAL_LOCKER.acquire()'
p151
sI8447
S'                self._lastsql = self._adapter.create_table('
p152
ssg87
S'(self=<DAL uri="sqlite://storage.sqlite">, tablename=\'Bobina\', *fields=(<gluon.dal.Field object>, <gluon.dal.Field object>, <gluon.dal.Field object>, <gluon.dal.Field object>), **args={})'
p153
sg89
S'lazy_define_table'
p154
sa(dp155
g66
S'/home/ismael/Escritorio/web2py/gluon/dal.py'
p156
sg68
(dp157
S'fake_migrate'
p158
S'False'
p159
ssg74
I1134
sg75
(dp160
I1129
S'            self.file_close(tfile)'
p161
sI1130
S'            if sql_fields != sql_fields_old:'
p162
sI1131
S'                self.migrate_table(table,'
p163
sI1132
S'                                   sql_fields, sql_fields_old,'
p164
sI1133
S'                                   sql_fields_aux, None,'
p165
sI1134
S'                                   fake_migrate=fake_migrate'
p166
sI1135
S'                                   )'
p167
sI1136
S'        return query'
p168
sI1137
S''
sI1138
S'    def migrate_table(self,'
p169
ssg87
S'(self=<gluon.dal.SQLiteAdapter object>, table=<Table Bobina (id,descripcion,inductancia,unidad_inductancia,cantidad)>, migrate=True, fake_migrate=False, polymodel=None)'
p170
sg89
S'create_table'
p171
sa(dp172
g66
S'/home/ismael/Escritorio/web2py/gluon/dal.py'
p173
sg68
(dp174
S'self'
p175
S'<gluon.dal.SQLiteAdapter object>'
p176
sS'self.execute'
p177
S'<bound method SQLiteAdapter.execute of <gluon.dal.SQLiteAdapter object>>'
p178
sS'sub_query'
p179
S"'ALTER TABLE Bobina ADD inductancia INTEGER NOT NULL;'"
p180
ssg74
I1246
sg75
(dp181
I1248
S'                        # do not allow multiple alter table'
p182
sI1249
S'                        # in one transaction so we must commit'
p183
sI1250
S'                        # partial transactions and'
p184
sI1241
S'                    if fake_migrate:'
p185
sI1242
S'                        if db._adapter.commit_on_alter_table:'
p186
sI1243
S'                            self.save_dbt(table, sql_fields_current)'
p187
sI1244
S"                        self.log('faked!\\n', table)"
p188
sI1245
S'                    else:'
p189
sI1246
S'                        self.execute(sub_query)'
p190
sI1247
S'                        # Caveat: mysql, oracle and firebird'
p191
ssg87
S"(self=<gluon.dal.SQLiteAdapter object>, table=<Table Bobina (id,descripcion,inductancia,unidad_inductancia,cantidad)>, sql_fields={'cantidad': {'length': 512, 'notnull': True, 'sortable': 5, 'sql': 'INTEGER NOT NULL', 'type': 'integer', 'unique': False}, 'descripcion': {'length': 512, 'notnull': True, 'sortable': 2, 'sql': 'CHAR(512) NOT NULL', 'type': 'string', 'unique': False}, 'id': {'length': 512, 'notnull': False, 'sortable': 1, 'sql': 'INTEGER PRIMARY KEY AUTOINCREMENT', 'type': 'id', 'unique': False}, 'inductancia': {'length': 512, 'notnull': True, 'sortable': 3, 'sql': 'INTEGER NOT NULL', 'type': 'integer', 'unique': False}, 'unidad_inductancia': {'length': 512, 'notnull': True, 'sortable': 4, 'sql': 'INTEGER REFERENCES Medida_Inductancia (id) ON DELETE CASCADE', 'type': 'reference Medida_Inductancia', 'unique': False}}, sql_fields_old={'cantidad': {'length': 512, 'notnull': True, 'sortable': 4, 'sql': 'INTEGER NOT NULL', 'type': 'integer', 'unique': False}, 'datasheet': {'length': 512, 'notnull': True, 'sortable': 3, 'sql': 'CHAR(512) NOT NULL', 'type': 'upload', 'unique': False}, 'descripcion': {'length': 512, 'notnull': True, 'sortable': 2, 'sql': 'CHAR(512) NOT NULL', 'type': 'string', 'unique': False}, 'id': {'length': 512, 'notnull': False, 'sortable': 1, 'sql': 'INTEGER PRIMARY KEY AUTOINCREMENT', 'type': 'id', 'unique': False}}, sql_fields_aux={'cantidad': {'sql': 'INTEGER NOT NULL'}, 'descripcion': {'sql': 'CHAR(512) NOT NULL'}, 'id': {'sql': 'INTEGER PRIMARY KEY AUTOINCREMENT'}, 'inductancia': {'sql': 'INTEGER NOT NULL'}, 'unidad_inductancia': {'sql': 'INTEGER REFERENCES Medida_Inductancia (id) ON DELETE CASCADE'}}, logfile=None, fake_migrate=False)"
p192
sg89
S'migrate_table'
p193
sa(dp194
g66
S'/home/ismael/Escritorio/web2py/gluon/dal.py'
p195
sg68
(dp196
S'a'
S"('ALTER TABLE Bobina ADD inductancia INTEGER NOT NULL;',)"
p197
sS'self'
p198
S'<gluon.dal.SQLiteAdapter object>'
p199
sS'b'
g21
sS'self.log_execute'
p200
S'<bound method SQLiteAdapter.log_execute of <gluon.dal.SQLiteAdapter object>>'
p201
ssg74
I1967
sg75
(dp202
I1962
S'        self.db._timings.append((command, time.time()-t0))'
p203
sI1963
S'        del self.db._timings[:-TIMINGSSIZE]'
p204
sI1964
S'        return ret'
p205
sI1965
S''
sI1966
S'    def execute(self, *a, **b):'
p206
sI1967
S'        return self.log_execute(*a, **b)'
p207
sI1968
S''
sI1969
S'    def represent(self, obj, fieldtype):'
p208
sI1970
S'        field_is_type = fieldtype.startswith'
p209
sI1971
S'        if isinstance(obj, CALLABLETYPES):'
p210
ssg87
S"(self=<gluon.dal.SQLiteAdapter object>, *a=('ALTER TABLE Bobina ADD inductancia INTEGER NOT NULL;',), **b={})"
p211
sg89
S'execute'
p212
sa(dp213
g66
S'/home/ismael/Escritorio/web2py/gluon/dal.py'
p214
sg68
(dp215
S'a'
S"('ALTER TABLE Bobina ADD inductancia INTEGER NOT NULL;',)"
p216
sS'b'
g21
sS'self'
p217
S'<gluon.dal.SQLiteAdapter object>'
p218
sS'ret'
p219
g99
sS'self.cursor'
p220
S'<sqlite3.Cursor object>'
p221
sS'command'
p222
S"'ALTER TABLE Bobina ADD inductancia INTEGER NOT NULL;'"
p223
sS'self.cursor.execute'
p224
S'<built-in method execute of sqlite3.Cursor object>'
p225
ssg74
I1961
sg75
(dp226
I1956
S'            command = self.filter_sql_command(command)'
p227
sI1957
S'        if self.db._debug:'
p228
sI1958
S"            LOGGER.debug('SQL: %s' % command)"
p229
sI1959
S'        self.db._lastsql = command'
p230
sI1960
S'        t0 = time.time()'
p231
sI1961
S'        ret = self.cursor.execute(command, *a[1:], **b)'
p232
sI1962
S'        self.db._timings.append((command, time.time()-t0))'
p233
sI1963
S'        del self.db._timings[:-TIMINGSSIZE]'
p234
sI1964
S'        return ret'
p235
sI1965
S''
ssg87
S"(self=<gluon.dal.SQLiteAdapter object>, *a=('ALTER TABLE Bobina ADD inductancia INTEGER NOT NULL;',), **b={})"
p236
sg89
S'log_execute'
p237
sasS'pyver'
p238
S'Python 2.7.5+: /usr/bin/python (prefix: /usr)'
p239
sS'session'
p240
g61
(S's\x9c\x00\x00\x00<div><table><tr><td style="font-weight:bold;vertical-align:top;">flash</td><td style="vertical-align:top;">:</td><td><div>None</div></td></tr></table></div>'
tRp241
sS'etype'
p242
S"<class 'sqlite3.OperationalError'>"
p243
sS'date'
p244
S'Mon Sep 21 19:21:43 2015'
p245
sS'response'
p246
g61
(S's\x0b\x18\x00\x00<div><table><tr><td style="font-weight:bold;vertical-align:top;">body</td><td style="vertical-align:top;">:</td><td><div>&lt;cStringIO.StringO object at 0x7f703087e260&gt;</div></td></tr><tr><td style="font-weight:bold;vertical-align:top;">cookies</td><td style="vertical-align:top;">:</td><td><div><table><tr><td style="font-weight:bold;vertical-align:top;">session_id_repuestos</td><td style="vertical-align:top;">:</td><td><div>127.0.0.1-7a4cd788-0bfb-4fd5-b952-c9ac91fe1f97<table><tr><td style="font-weight:bold;vertical-align:top;">comment</td><td style="vertical-align:top;">:</td><td><div></div></td></tr><tr><td style="font-weight:bold;vertical-align:top;">domain</td><td style="vertical-align:top;">:</td><td><div></div></td></tr><tr><td style="font-weight:bold;vertical-align:top;">expires</td><td style="vertical-align:top;">:</td><td><div></div></td></tr><tr><td style="font-weight:bold;vertical-align:top;">httponly</td><td style="vertical-align:top;">:</td><td><div></div></td></tr><tr><td style="font-weight:bold;vertical-align:top;">max-age</td><td style="vertical-align:top;">:</td><td><div></div></td></tr><tr><td style="font-weight:bold;vertical-align:top;">path</td><td style="vertical-align:top;">:</td><td><div>/</div></td></tr><tr><td style="font-weight:bold;vertical-align:top;">secure</td><td style="vertical-align:top;">:</td><td><div></div></td></tr><tr><td style="font-weight:bold;vertical-align:top;">version</td><td style="vertical-align:top;">:</td><td><div></div></td></tr></table></div></td></tr></table></div></td></tr><tr><td style="font-weight:bold;vertical-align:top;">delimiters</td><td style="vertical-align:top;">:</td><td><div><table><tr><td><div>{{</div></td></tr><tr><td><div>}}</div></td></tr></table></div></td></tr><tr><td style="font-weight:bold;vertical-align:top;">files</td><td style="vertical-align:top;">:</td><td><div><table></table></div></td></tr><tr><td style="font-weight:bold;vertical-align:top;">flash</td><td style="vertical-align:top;">:</td><td><div></div></td></tr><tr><td style="font-weight:bold;vertical-align:top;">form_label_separator</td><td style="vertical-align:top;">:</td><td><div>: </div></td></tr><tr><td style="font-weight:bold;vertical-align:top;">formstyle</td><td style="vertical-align:top;">:</td><td><div>table3cols</div></td></tr><tr><td style="font-weight:bold;vertical-align:top;">generic_patterns</td><td style="vertical-align:top;">:</td><td><div><table><tr><td><div>*</div></td></tr></table></div></td></tr><tr><td style="font-weight:bold;vertical-align:top;">headers</td><td style="vertical-align:top;">:</td><td><div><table><tr><td style="font-weight:bold;vertical-align:top;">X-Powered-By</td><td style="vertical-align:top;">:</td><td><div>web2py</div></td></tr></table></div></td></tr><tr><td style="font-weight:bold;vertical-align:top;">menu</td><td style="vertical-align:top;">:</td><td><div><table></table></div></td></tr><tr><td style="font-weight:bold;vertical-align:top;">meta</td><td style="vertical-align:top;">:</td><td><div><table></table></div></td></tr><tr><td style="font-weight:bold;vertical-align:top;">models_to_run</td><td style="vertical-align:top;">:</td><td><div><table><tr><td><div>^\\w+\\.py$</div></td></tr><tr><td><div>^default/\\w+\\.py$</div></td></tr><tr><td><div>^default/index/\\w+\\.py$</div></td></tr></table></div></td></tr><tr><td style="font-weight:bold;vertical-align:top;">postprocessing</td><td style="vertical-align:top;">:</td><td><div><table></table></div></td></tr><tr><td style="font-weight:bold;vertical-align:top;">session_client</td><td style="vertical-align:top;">:</td><td><div>127.0.0.1</div></td></tr><tr><td style="font-weight:bold;vertical-align:top;">session_cookie_compression_level</td><td style="vertical-align:top;">:</td><td><div>None</div></td></tr><tr><td style="font-weight:bold;vertical-align:top;">session_cookie_expires</td><td style="vertical-align:top;">:</td><td><div>None</div></td></tr><tr><td style="font-weight:bold;vertical-align:top;">session_cookie_key</td><td style="vertical-align:top;">:</td><td><div>None</div></td></tr><tr><td style="font-weight:bold;vertical-align:top;">session_data_name</td><td style="vertical-align:top;">:</td><td><div>session_data_repuestos</div></td></tr><tr><td style="font-weight:bold;vertical-align:top;">session_file</td><td style="vertical-align:top;">:</td><td><div>&lt;open file &#x27;/home/ismael/Escritorio/web2py/applications/Repuestos/sessions/142/0f3/127.0.0.1-7a4cd788-0bfb-4fd5-b952-c9ac91fe1f97&#x27;, mode &#x27;rb+&#x27; at 0x2b946f0&gt;</div></td></tr><tr><td style="font-weight:bold;vertical-align:top;">session_filename</td><td style="vertical-align:top;">:</td><td><div>/home/ismael/Escritorio/web2py/applications/Repuestos/sessions/127.0.0.1-7a4cd788-0bfb-4fd5-b952-c9ac91fe1f97</div></td></tr><tr><td style="font-weight:bold;vertical-align:top;">session_hash</td><td style="vertical-align:top;">:</td><td><div>32d9a229ca44793f46175ac008ecfbb3</div></td></tr><tr><td style="font-weight:bold;vertical-align:top;">session_id</td><td style="vertical-align:top;">:</td><td><div>127.0.0.1-7a4cd788-0bfb-4fd5-b952-c9ac91fe1f97</div></td></tr><tr><td style="font-weight:bold;vertical-align:top;">session_id_name</td><td style="vertical-align:top;">:</td><td><div>session_id_repuestos</div></td></tr><tr><td style="font-weight:bold;vertical-align:top;">session_locked</td><td style="vertical-align:top;">:</td><td><div>True</div></td></tr><tr><td style="font-weight:bold;vertical-align:top;">session_masterapp</td><td style="vertical-align:top;">:</td><td><div>Repuestos</div></td></tr><tr><td style="font-weight:bold;vertical-align:top;">session_new</td><td style="vertical-align:top;">:</td><td><div>False</div></td></tr><tr><td style="font-weight:bold;vertical-align:top;">session_storage_type</td><td style="vertical-align:top;">:</td><td><div>file</div></td></tr><tr><td style="font-weight:bold;vertical-align:top;">status</td><td style="vertical-align:top;">:</td><td><div>200</div></td></tr><tr><td style="font-weight:bold;vertical-align:top;">view</td><td style="vertical-align:top;">:</td><td><div>default/index.html</div></td></tr></table></div>'
tRp247
sS'locals'
p248
(dp249
S'a'
S"('ALTER TABLE Bobina ADD inductancia INTEGER NOT NULL;',)"
p250
sS'self'
p251
S'<gluon.dal.SQLiteAdapter object>'
p252
sS'b'
g21
sS'command'
p253
S"'ALTER TABLE Bobina ADD inductancia INTEGER NOT NULL;'"
p254
sS't0'
p255
S'1442856103.35814'
p256
sssS'traceback'
p257
S'Traceback (most recent call last):\n  File "/home/ismael/Escritorio/web2py/gluon/restricted.py", line 224, in restricted\n    exec ccode in environment\n  File "/home/ismael/Escritorio/web2py/applications/Repuestos/models/db.py", line 231, in <module>\n    Field(\'cantidad\',\'integer\',label="Cantidad",notnull=True),\n  File "/home/ismael/Escritorio/web2py/gluon/dal.py", line 8414, in define_table\n    table = self.lazy_define_table(tablename, *fields, **args)\n  File "/home/ismael/Escritorio/web2py/gluon/dal.py", line 8450, in lazy_define_table\n    polymodel=polymodel)\n  File "/home/ismael/Escritorio/web2py/gluon/dal.py", line 1134, in create_table\n    fake_migrate=fake_migrate\n  File "/home/ismael/Escritorio/web2py/gluon/dal.py", line 1246, in migrate_table\n    self.execute(sub_query)\n  File "/home/ismael/Escritorio/web2py/gluon/dal.py", line 1967, in execute\n    return self.log_execute(*a, **b)\n  File "/home/ismael/Escritorio/web2py/gluon/dal.py", line 1961, in log_execute\n    ret = self.cursor.execute(command, *a[1:], **b)\nOperationalError: Cannot add a NOT NULL column with default value NULL\n'
p258
s.